	gHotSpotVMIntConstantEntryArrayStride;
	gHotSpotVMIntConstantEntryNameOffset;
	gHotSpotVMIntConstantEntryValueOffset;
	gHotSpotVMIntConstants;
	gHotSpotVMLongConstantEntryArrayStride;
	gHotSpotVMLongConstantEntryNameOffset;
	gHotSpotVMLongConstantEntryValueOffset;
	gHotSpotVMLongConstants;
	gHotSpotVMStructEntryAddressOffset;
	gHotSpotVMStructEntryArrayStride;
	gHotSpotVMStructEntryFieldNameOffset;
	gHotSpotVMStructEntryIsStaticOffset;
	gHotSpotVMStructEntryOffsetOffset;
	gHotSpotVMStructEntryTypeNameOffset;
	gHotSpotVMStructEntryTypeStringOffset;
	gHotSpotVMStructs;
	gHotSpotVMTypeEntryArrayStride;
	gHotSpotVMTypeEntryIsIntegerTypeOffset;
	gHotSpotVMTypeEntryIsOopTypeOffset;
	gHotSpotVMTypeEntryIsUnsignedOffset;
	gHotSpotVMTypeEntrySizeOffset;
	gHotSpotVMTypeEntrySuperclassNameOffset;
	gHotSpotVMTypeEntryTypeNameOffset;
	gHotSpotVMTypes;
	UseSharedSpaces;
	_ZN9Arguments17SharedArchivePathE;
	_ZTV10AllocStats;
	_ZTV10ArrayKlass;
	_ZTV10ASPSOldGen;
	_ZTV10BarrierSet;
	_ZTV10BinaryNode;
	_ZTV10BitCounter;
	_ZTV10BlkClosure;
	_ZTV10BlockBegin;
	_ZTV10_BlockList;
	_ZTV10Block_List;
	_ZTV10BranchData;
	_ZTV10BufferBlob;
	_ZTV10C2Compiler;
	_ZTV10castIINode;
	_ZTV10CastIINode;
	_ZTV10castPPNode;
	_ZTV10CastPPNode;
	_ZTV10CFGElement;
	_ZTV10ChangeItem;
	_ZTV10ChunkArray;
	_ZTV10ciCallSite;
	_ZTV10ciInstance;
	_ZTV10ciJumpData;
	_ZTV10ciMetadata;
	_ZTV10ciObjArray;
	_ZTV10ciTypeFlow;
	_ZTV10CLDClosure;
	_ZTV10CMoveDNode;
	_ZTV10CMoveFNode;
	_ZTV10CMoveINode;
	_ZTV10CMoveLNode;
	_ZTV10CMoveNNode;
	_ZTV10CMovePNode;
	_ZTV10cmpOpUOper;
	_ZTV10CMSGCStats;
	_ZTV10CodeBuffer;
	_ZTV10CodeString;
	_ZTV10CompiledIC;
	_ZTV10CompileLog;
	_ZTV10Conv2BNode;
	_ZTV10Dictionary;
	_ZTV10DivModNode;
	_ZTV10DoubleType;
	_ZTV10DumpWriter;
	_ZTV10ElfDecoder;
	_ZTV10fileStream;
	_ZTV10G1EdenPool;
	_ZTV10GangWorker;
	_ZTV10GCStatInfo;
	_ZTV10Generation;
	_ZTV10HandleArea;
	_ZTV10HeapDumper;
	_ZTV10HeapRegion;
	_ZTV10HistoEntry;
	_ZTV10IdleGCTask;
	_ZTV10IfTrueNode;
	_ZTV10immI16Oper;
	_ZTV10immL10Oper;
	_ZTV10immL32Oper;
	_ZTV10immP31Oper;
	_ZTV10immU31Oper;
	_ZTV10InlineTree;
	_ZTV10InstanceOf;
	_ZTV10Invariance;
	_ZTV10JavaThread;
	_ZTV10javaVFrame;
	_ZTV10jmpConNode;
	_ZTV10jmpDirNode;
	_ZTV10leaP32Node;
	_ZTV10LinearScan;
	_ZTV10LineBuffer;
	_ZTV10LinkedListI10MallocSiteE;
	_ZTV10LinkedListI20ReservedMemoryRegionE;
	_ZTV10LinkedListI21CommittedMemoryRegionE;
	_ZTV10LinkedListI27VirtualMemoryAllocationSiteE;
	_ZTV10LinkedListI7IntegerE;
	_ZTV10LIR_OpCall;
	_ZTV10LIR_OpList;
	_ZTV10LIR_OpLock;
	_ZTV10LIR_OprPtr;
	_ZTV10loadUBNode;
	_ZTV10LoadUBNode;
	_ZTV10loadUSNode;
	_ZTV10LoadUSNode;
	_ZTV10loadV4Node;
	_ZTV10loadV8Node;
	_ZTV10Log10DNode;
	_ZTV10MachIfNode;
	_ZTV10MemBarNode;
	_ZTV10MemoryPool;
	_ZTV10MethodData;
	_ZTV10methodOper;
	_ZTV10MethodType;
	_ZTV10MulHiLNode;
	_ZTV10mul_hiNode;
	_ZTV10Node_Array;
	_ZTV10NoopGCTask;
	_ZTV10ObjectType;
	_ZTV10OopClosure;
	_ZTV10Pack2DNode;
	_ZTV10Pack2LNode;
	_ZTV10PausePhase;
	_ZTV10PerfString;
	_ZTV10PSYoungGen;
	_ZTV10RegionNode;
	_ZTV10Relocation;
	_ZTV10Repl2DNode;
	_ZTV10Repl2FNode;
	_ZTV10Repl2INode;
	_ZTV10Repl2LNode;
	_ZTV10Repl2SNode;
	_ZTV10Repl4BNode;
	_ZTV10Repl4DNode;
	_ZTV10Repl4FNode;
	_ZTV10Repl4INode;
	_ZTV10Repl4LNode;
	_ZTV10Repl4SNode;
	_ZTV10Repl8BNode;
	_ZTV10Repl8FNode;
	_ZTV10Repl8INode;
	_ZTV10Repl8SNode;
	_ZTV10ReturnNode;
	_ZTV10ScopeValue;
	_ZTV10SeenThread;
	_ZTV10SensorInfo;
	_ZTV10SharedHeap;
	_ZTV10SkipGCALot;
	_ZTV10StackValue;
	_ZTV10StateSplit;
	_ZTV10storeBNode;
	_ZTV10StoreBNode;
	_ZTV10storeCNode;
	_ZTV10StoreCNode;
	_ZTV10storeDNode;
	_ZTV10StoreDNode;
	_ZTV10StoreField;
	_ZTV10storeFNode;
	_ZTV10StoreFNode;
	_ZTV10storeINode;
	_ZTV10StoreINode;
	_ZTV10storeLNode;
	_ZTV10StoreLNode;
	_ZTV10storeNNode;
	_ZTV10StoreNNode;
	_ZTV10storePNode;
	_ZTV10StorePNode;
	_ZTV10STWGCTimer;
	_ZTV10TraceEventI14EventClassLoadE;
	_ZTV10TraceEventI14EventThreadEndE;
	_ZTV10TraceEventI15EventThreadParkE;
	_ZTV10TraceEventI16EventClassUnloadE;
	_ZTV10TraceEventI16EventCompilationE;
	_ZTV10TraceEventI16EventThreadSleepE;
	_ZTV10TraceEventI16EventThreadStartE;
	_ZTV10TraceEventI17EventGCPhasePauseE;
	_ZTV10TraceEventI17EventMetaspaceOOME;
	_ZTV10TraceEventI18EventCodeCacheFullE;
	_ZTV10TraceEventI18EventCompilerPhaseE;
	_ZTV10TraceEventI18EventGCHeapSummaryE;
	_ZTV10TraceEventI18EventGCParallelOldE;
	_ZTV10TraceEventI18EventPSHeapSummaryE;
	_ZTV10TraceEventI19EventEvacuationInfoE;
	_ZTV10TraceEventI19EventSweepCodeCacheE;
	_ZTV10TraceEventI20EventCompilerFailureE;
	_ZTV10TraceEventI20EventJavaMonitorWaitE;
	_ZTV10TraceEventI20EventLongFlagChangedE;
	_ZTV10TraceEventI20EventPromotionFailedE;
	_ZTV10TraceEventI21EventEvacuationFailedE;
	_ZTV10TraceEventI21EventJavaMonitorEnterE;
	_ZTV10TraceEventI21EventMetaspaceSummaryE;
	_ZTV10TraceEventI22EventDoubleFlagChangedE;
	_ZTV10TraceEventI22EventStringFlagChangedE;
	_ZTV10TraceEventI23EventBooleanFlagChangedE;
	_ZTV10TraceEventI23EventExecuteVMOperationE;
	_ZTV10TraceEventI23EventGCPhasePauseLevel1E;
	_ZTV10TraceEventI23EventGCPhasePauseLevel2E;
	_ZTV10TraceEventI23EventGCPhasePauseLevel3E;
	_ZTV10TraceEventI23EventObjectCountAfterGCE;
	_ZTV10TraceEventI24EventGCGarbageCollectionE;
	_ZTV10TraceEventI25EventAllocObjectInNewTLABE;
	_ZTV10TraceEventI25EventMetaspaceGCThresholdE;
	_ZTV10TraceEventI26EventConcurrentModeFailureE;
	_ZTV10TraceEventI26EventGCG1GarbageCollectionE;
	_ZTV10TraceEventI26EventGCReferenceStatisticsE;
	_ZTV10TraceEventI27EventAllocObjectOutsideTLABE;
	_ZTV10TraceEventI27EventGCOldGarbageCollectionE;
	_ZTV10TraceEventI28EventUnsignedLongFlagChangedE;
	_ZTV10TraceEventI29EventGCYoungGarbageCollectionE;
	_ZTV10TraceEventI31EventMetaspaceAllocationFailureE;
	_ZTV10TraceEventI34EventMetaspaceChunkFreeListSummaryE;
	_ZTV10Type_Array;
	_ZTV10TypeAryPtr;
	_ZTV10TypeOopPtr;
	_ZTV10TypeRawPtr;
	_ZTV10UnlockNode;
	_ZTV10vadd2DNode;
	_ZTV10vadd2FNode;
	_ZTV10vadd2INode;
	_ZTV10vadd2LNode;
	_ZTV10vadd2SNode;
	_ZTV10vadd4BNode;
	_ZTV10vadd4FNode;
	_ZTV10vadd4INode;
	_ZTV10vadd4SNode;
	_ZTV10vadd8BNode;
	_ZTV10vadd8SNode;
	_ZTV10ValueArray;
	_ZTV10ValueStack;
	_ZTV10vand4BNode;
	_ZTV10vand8BNode;
	_ZTV10vdiv2DNode;
	_ZTV10vdiv2FNode;
	_ZTV10vdiv4FNode;
	_ZTV10VectorNode;
	_ZTV10VectorSetI;
	_ZTV10vmul2DNode;
	_ZTV10vmul2FNode;
	_ZTV10vmul2INode;
	_ZTV10vmul2SNode;
	_ZTV10vmul4FNode;
	_ZTV10vmul4INode;
	_ZTV10vmul4SNode;
	_ZTV10vmul8SNode;
	_ZTV10vor16BNode;
	_ZTV10vsll2INode;
	_ZTV10vsll2LNode;
	_ZTV10vsll2SNode;
	_ZTV10vsll4INode;
	_ZTV10vsll4SNode;
	_ZTV10vsll8SNode;
	_ZTV10vsra2INode;
	_ZTV10vsra2SNode;
	_ZTV10vsra4INode;
	_ZTV10vsra4SNode;
	_ZTV10vsra8SNode;
	_ZTV10vsrl2INode;
	_ZTV10vsrl2LNode;
	_ZTV10vsrl2SNode;
	_ZTV10vsrl4INode;
	_ZTV10vsrl4SNode;
	_ZTV10vsrl8SNode;
	_ZTV10vsub2DNode;
	_ZTV10vsub2FNode;
	_ZTV10vsub2INode;
	_ZTV10vsub2LNode;
	_ZTV10vsub2SNode;
	_ZTV10vsub4BNode;
	_ZTV10vsub4FNode;
	_ZTV10vsub4INode;
	_ZTV10vsub4SNode;
	_ZTV10vsub8BNode;
	_ZTV10vsub8SNode;
	_ZTV10vxor4BNode;
	_ZTV10vxor8BNode;
	_ZTV11AccessArray;
	_ZTV11AccessField;
	_ZTV11AdapterBlob;
	_ZTV11adapterNode;
	_ZTV11AddressType;
	_ZTV11ArgInfoData;
	_ZTV11ArrayLength;
	_ZTV11Block_Array;
	_ZTV11BlockMerger;
	_ZTV11BoxLockNode;
	_ZTV11BuildCutout;
	_ZTV11CardTableRS;
	_ZTV11castP2XNode;
	_ZTV11CastP2XNode;
	_ZTV11castX2PNode;
	_ZTV11CastX2PNode;
	_ZTV11ChangeWiden;
	_ZTV11ChunkedListImL10MemoryType8EE;
	_ZTV11ChunkedListIP8MetadataL10MemoryType7EE;
	_ZTV11ChunkedListIP8MetadataL10MemoryType8EE;
	_ZTV11ciSignature;
	_ZTV11ciTypeArray;
	_ZTV11CodeletMark;
	_ZTV11CodeOffsets;
	_ZTV11Compilation;
	_ZTV11CompileTask;
	_ZTV11ConvD2FNode;
	_ZTV11ConvD2INode;
	_ZTV11ConvD2LNode;
	_ZTV11ConvF2DNode;
	_ZTV11ConvF2INode;
	_ZTV11ConvF2LNode;
	_ZTV11convI2BNode;
	_ZTV11ConvI2DNode;
	_ZTV11ConvI2FNode;
	_ZTV11ConvI2LNode;
	_ZTV11ConvL2DNode;
	_ZTV11ConvL2FNode;
	_ZTV11ConvL2INode;
	_ZTV11convN2INode;
	_ZTV11convP2BNode;
	_ZTV11convP2INode;
	_ZTV11CounterData;
	_ZTV11DCmdArgIter;
	_ZTV11DCmdFactory;
	_ZTV11DecodeNNode;
	_ZTV11divL_10Node;
	_ZTV11DivModINode;
	_ZTV11DivModLNode;
	_ZTV11EncodePNode;
	_ZTV11entryVFrame;
	_ZTV11ExtractNode;
	_ZTV11FieldBuffer;
	_ZTV11FieldStream;
	_ZTV11FileMapInfo;
	_ZTV11FillClosure;
	_ZTV11G1Allocator;
	_ZTV11G1NewTracer;
	_ZTV11G1OldTracer;
	_ZTV11GCTaskQueue;
	_ZTV11IfFalseNode;
	_ZTV11IllegalType;
	_ZTV11immI_16Oper;
	_ZTV11immI_24Oper;
	_ZTV11immI_32Oper;
	_ZTV11immI_64Oper;
	_ZTV11immI_M1Oper;
	_ZTV11immL_M1Oper;
	_ZTV11immUL32Oper;
	_ZTV11Instruction;
	_ZTV11IntConstant;
	_ZTV11IRScopeList;
	_ZTV11jmpConUNode;
	_ZTV11JvmtiTagMap;
	_ZTV11KlassHandle;
	_ZTV11klassItable;
	_ZTV11KlassStream;
	_ZTV11klassVtable;
	_ZTV11LIR_Address;
	_ZTV11LIRItemList;
	_ZTV11LIR_OpArray;
	_ZTV11LIR_OpDelay;
	_ZTV11LIR_OpLabel;
	_ZTV11LIR_OprList;
	_ZTV11loadB2LNode;
	_ZTV11loadI2BNode;
	_ZTV11loadI2LNode;
	_ZTV11loadI2SNode;
	_ZTV11LoadIndexed;
	_ZTV11loadS2BNode;
	_ZTV11loadS2LNode;
	_ZTV11loadSSDNode;
	_ZTV11loadSSFNode;
	_ZTV11loadSSINode;
	_ZTV11loadSSLNode;
	_ZTV11loadSSPNode;
	_ZTV11loadV16Node;
	_ZTV11loadV32Node;
	_ZTV11LShiftINode;
	_ZTV11LShiftLNode;
	_ZTV11MachNopNode;
	_ZTV11MachUEPNode;
	_ZTV11MonitorExit;
	_ZTV11MonitorInfo;
	_ZTV11MoveD2LNode;
	_ZTV11MoveF2INode;
	_ZTV11MoveI2FNode;
	_ZTV11MoveL2DNode;
	_ZTV11MutexLocker;
	_ZTV11NamedThread;
	_ZTV11NameSigHash;
	_ZTV11NewInstance;
	_ZTV11NullDecoder;
	_ZTV11ObjectValue;
	_ZTV11ObjPtrQueue;
	_ZTV11OldGCTracer;
	_ZTV11OopMapCache;
	_ZTV11OopMapValue;
	_ZTV11OopRecorder;
	_ZTV11Opaque1Node;
	_ZTV11Opaque2Node;
	_ZTV11Opaque3Node;
	_ZTV11PCTableNode;
	_ZTV11PhaseSender;
	_ZTV11PhaseValues;
	_ZTV11PhiResolver;
	_ZTV11ProfileCall;
	_ZTV11ProfileData;
	_ZTV11PseudoScope;
	_ZTV11PtrQueueSet;
	_ZTV11ReadClosure;
	_ZTV11ReallocMark;
	_ZTV11RegisterMap;
	_ZTV11Repl16BNode;
	_ZTV11Repl16SNode;
	_ZTV11Repl32BNode;
	_ZTV11ResolveNode;
	_ZTV11ResourceObj;
	_ZTV11RethrowNode;
	_ZTV11RSHashTable;
	_ZTV11RShiftINode;
	_ZTV11RShiftLNode;
	_ZTV11RuntimeCall;
	_ZTV11RuntimeStub;
	_ZTV11ScanClosure;
	_ZTV11small_cache;
	_ZTV11StoreCMNode;
	_ZTV11storeD0Node;
	_ZTV11storeF0Node;
	_ZTV11storeV4Node;
	_ZTV11storeV8Node;
	_ZTV11StrCompNode;
	_ZTV11StringTable;
	_ZTV11SvcGCMarker;
	_ZTV11SwitchRange;
	_ZTV11SymbolTable;
	_ZTV11TableSwitch;
	_ZTV11TraceStream;
	_ZTV11ttyUnlocker;
	_ZTV11TypeInstPtr;
	_ZTV11UnsafeRawOp;
	_ZTV11UseIterator;
	_ZTV11vadd16BNode;
	_ZTV11vand16BNode;
	_ZTV11VersionDCmd;
	_ZTV11vframeArray;
	_ZTV11VM_PrintJNI;
	_ZTV11VoidClosure;
	_ZTV11vsub16BNode;
	_ZTV11vxor16BNode;
	_ZTV12absD_regNode;
	_ZTV12absF_regNode;
	_ZTV12addD_immNode;
	_ZTV12addD_memNode;
	_ZTV12addD_regNode;
	_ZTV12addF_immNode;
	_ZTV12addF_memNode;
	_ZTV12addF_regNode;
	_ZTV12AgentLibrary;
	_ZTV12AllocatedObj;
	_ZTV12AllocateNode;
	_ZTV12any_RegPOper;
	_ZTV12ArithmeticOp;
	_ZTV12ASPSYoungGen;
	_ZTV12AssertValues;
	_ZTV12BaseIterator;
	_ZTV12BlockClosure;
	_ZTV12BlockPrinter;
	_ZTV12Bytecode_new;
	_ZTV12CallJavaNode;
	_ZTV12CallLeafNode;
	_ZTV12CallTypeData;
	_ZTV12ChunkManager;
	_ZTV12ciArrayKlass;
	_ZTV12ciBaseObject;
	_ZTV12ciBranchData;
	_ZTV12ciMemberName;
	_ZTV12ciMethodData;
	_ZTV12ciMethodType;
	_ZTV12ciNullObject;
	_ZTV12cmpD_immNode;
	_ZTV12cmpD_memNode;
	_ZTV12cmpD_regNode;
	_ZTV12cmpF_immNode;
	_ZTV12cmpF_memNode;
	_ZTV12cmpF_regNode;
	_ZTV12cmpOpUCFOper;
	_ZTV12CMRemarkTask;
	_ZTV12CMSCollector;
	_ZTV12CMSMarkStack;
	_ZTV12CMSTokenSync;
	_ZTV12CodeEmitInfo;
	_ZTV12CodeHeapPool;
	_ZTV12CodeStubList;
	_ZTV12CompactPoint;
	_ZTV12compiledNode;
	_ZTV12CompileQueue;
	_ZTV12ConstantPool;
	_ZTV12cosD_regNode;
	_ZTV12CreateExNode;
	_ZTV12DCmdArgumentI16NanoTimeArgumentE;
	_ZTV12DCmdArgumentI18MemorySizeArgumentE;
	_ZTV12DCmdArgumentIbE;
	_ZTV12DCmdArgumentIlE;
	_ZTV12DCmdArgumentIP19StringArrayArgumentE;
	_ZTV12DCmdArgumentIPcE;
	_ZTV12decI_memNode;
	_ZTV12decL_memNode;
	_ZTV12DefNewTracer;
	_ZTV12Dependencies;
	_ZTV12divD_immNode;
	_ZTV12divD_memNode;
	_ZTV12divD_regNode;
	_ZTV12divF_immNode;
	_ZTV12divF_memNode;
	_ZTV12divF_regNode;
	_ZTV12EdgeIterator;
	_ZTV12EventLogBaseI16StringLogMessageE;
	_ZTV12EventLogBaseI9GCMessageE;
	_ZTV12expD_regNode;
	_ZTV12ExtractBNode;
	_ZTV12ExtractCNode;
	_ZTV12ExtractDNode;
	_ZTV12ExtractFNode;
	_ZTV12ExtractINode;
	_ZTV12ExtractLNode;
	_ZTV12ExtractSNode;
	_ZTV12FastLockNode;
	_ZTV12FieldClosure;
	_ZTV12FieldPrinter;
	_ZTV12G1CardCounts;
	_ZTV12G1MMUTracker;
	_ZTV12G1OldGenPool;
	_ZTV12GCPauseTimer;
	_ZTV12GCTaskThread;
	_ZTV12HeapDumpDCmd;
	_ZTV12HistoClosure;
	_ZTV12ICMSDisabler;
	_ZTV12immI_255Oper;
	_ZTV12immL_127Oper;
	_ZTV12immL_255Oper;
	_ZTV12incI_memNode;
	_ZTV12incL_memNode;
	_ZTV12indIndexOper;
	_ZTV12indirectOper;
	_ZTV12InstanceType;
	_ZTV12IntervalList;
	_ZTV12IntHistogram;
	_ZTV12IRScopeArray;
	_ZTV12JumpProjNode;
	_ZTV12jumpXtndNode;
	_ZTV12JvmtiEnvBase;
	_ZTV12KlassClosure;
	_ZTV12LIRGenerator;
	_ZTV12LIRItemArray;
	_ZTV12LIR_OpAssert;
	_ZTV12LIR_OpBranch;
	_ZTV12LIR_OprArray;
	_ZTV12LIR_OpRTCall;
	_ZTV12loadConDNode;
	_ZTV12loadConFNode;
	_ZTV12loadConINode;
	_ZTV12loadConLNode;
	_ZTV12loadConNNode;
	_ZTV12loadConPNode;
	_ZTV12loadI2UBNode;
	_ZTV12loadI2USNode;
	_ZTV12loadUB2LNode;
	_ZTV12loadUI2LNode;
	_ZTV12loadUS2BNode;
	_ZTV12loadUS2LNode;
	_ZTV12LocalVarNode;
	_ZTV12logD_regNode;
	_ZTV12LongConstant;
	_ZTV12LookupSwitch;
	_ZTV12LShiftVBNode;
	_ZTV12LShiftVINode;
	_ZTV12LShiftVLNode;
	_ZTV12LShiftVSNode;
	_ZTV12MachCallNode;
	_ZTV12MachGotoNode;
	_ZTV12MachHaltNode;
	_ZTV12MachProjNode;
	_ZTV12MachTempNode;
	_ZTV12MachTypeNode;
	_ZTV12MemoryBuffer;
	_ZTV12MergeMemNode;
	_ZTV12MetadataType;
	_ZTV12MethodFamily;
	_ZTV12methodHandle;
	_ZTV12MethodStream;
	_ZTV12MonitorChunk;
	_ZTV12MonitorEnter;
	_ZTV12MonitorValue;
	_ZTV12MoveResolver;
	_ZTV12mulD_immNode;
	_ZTV12mulD_memNode;
	_ZTV12mulD_regNode;
	_ZTV12mulF_immNode;
	_ZTV12mulF_memNode;
	_ZTV12mulF_regNode;
	_ZTV12mulI_memNode;
	_ZTV12mulL_memNode;
	_ZTV12MutableSpace;
	_ZTV12NamedCounter;
	_ZTV12negD_regNode;
	_ZTV12negF_regNode;
	_ZTV12negI_memNode;
	_ZTV12negL_memNode;
	_ZTV12NewTypeArray;
	_ZTV12NoHandleMark;
	_ZTV12ObjectLocker;
	_ZTV12ObjectWaiter;
	_ZTV12OopMapStream;
	_ZTV12orI_rRegNode;
	_ZTV12orL_rRegNode;
	_ZTV12outputStream;
	_ZTV12OverflowNode;
	_ZTV12ParNewTracer;
	_ZTV12PatchingStub;
	_ZTV12PerfDataList;
	_ZTV12PeriodicTask;
	_ZTV12PhaseChaitin;
	_ZTV12PhaseIterGVN;
	_ZTV12PhaseVisitor;
	_ZTV12PointsToNode;
	_ZTV12powD_regNode;
	_ZTV12ProfilerNode;
	_ZTV12r15_RegPOper;
	_ZTV12rax_RegIOper;
	_ZTV12rax_RegLOper;
	_ZTV12rax_RegNOper;
	_ZTV12rax_RegPOper;
	_ZTV12rbp_RegPOper;
	_ZTV12rbx_RegIOper;
	_ZTV12rbx_RegPOper;
	_ZTV12rcx_RegIOper;
	_ZTV12rcx_RegLOper;
	_ZTV12rdi_RegIOper;
	_ZTV12rdi_RegPOper;
	_ZTV12rdx_RegIOper;
	_ZTV12rdx_RegLOper;
	_ZTV12rep_stosNode;
	_ZTV12ResourceArea;
	_ZTV12ResourceMark;
	_ZTV12RShiftVBNode;
	_ZTV12RShiftVINode;
	_ZTV12RShiftVLNode;
	_ZTV12RShiftVSNode;
	_ZTV12rsi_RegPOper;
	_ZTV12sinD_regNode;
	_ZTV12SpaceClosure;
	_ZTV12SpaceManager;
	_ZTV12SpaceMangler;
	_ZTV12SpaceSummary;
	_ZTV12StartOSRNode;
	_ZTV12StoreIndexed;
	_ZTV12storeSSDNode;
	_ZTV12storeSSFNode;
	_ZTV12storeSSINode;
	_ZTV12storeSSLNode;
	_ZTV12storeSSPNode;
	_ZTV12storeV16Node;
	_ZTV12storeV32Node;
	_ZTV12StringConcat;
	_ZTV12stringStream;
	_ZTV12StubCodeDesc;
	_ZTV12StubCodeMark;
	_ZTV12subD_immNode;
	_ZTV12subD_memNode;
	_ZTV12subD_regNode;
	_ZTV12subF_immNode;
	_ZTV12subF_memNode;
	_ZTV12subF_regNode;
	_ZTV12SubTasksDone;
	_ZTV12SweepClosure;
	_ZTV12SysClassPath;
	_ZTV12SystemGCDCmd;
	_ZTV12TailCallNode;
	_ZTV12TailJumpNode;
	_ZTV12tanD_regNode;
	_ZTV12TenuredSpace;
	_ZTV12ThreadShadow;
	_ZTV12tlsLoadPNode;
	_ZTV12TraceCPUTime;
	_ZTV12TruncatedSeq;
	_ZTV12TypeKlassPtr;
	_ZTV12UniverseOper;
	_ZTV12UnsafeGetRaw;
	_ZTV12UnsafePutRaw;
	_ZTV12URShiftINode;
	_ZTV12URShiftLNode;
	_ZTV12ValueSetList;
	_ZTV12ValueVisitor;
	_ZTV12vframeStream;
	_ZTV12VM_Operation;
	_ZTV12VMUptimeDCmd;
	_ZTV12VM_ZombieAll;
	_ZTV12WarmCallInfo;
	_ZTV12WorkerThread;
	_ZTV12WriteClosure;
	_ZTV12YieldClosure;
	_ZTV13AccessIndexed;
	_ZTV13AccessMonitor;
	_ZTV13addI_rRegNode;
	_ZTV13addL_rRegNode;
	_ZTV13addP_rRegNode;
	_ZTV13andI_rRegNode;
	_ZTV13andL_rRegNode;
	_ZTV13ArgumentCount;
	_ZTV13ArrayConstant;
	_ZTV13ArraycopyNode;
	_ZTV13ArrayCopyStub;
	_ZTV13BarrierGCTask;
	_ZTV13BasicTypeList;
	_ZTV13BitMapClosure;
	_ZTV13BlockListList;
	_ZTV13BlockPairList;
	_ZTV13CallGenerator;
	_ZTV13Canonicalizer;
	_ZTV13CatchProjNode;
	_ZTV13CE_Eliminator;
	_ZTV13ciArgInfoData;
	_ZTV13ciCallProfile;
	_ZTV13ciCounterData;
	_ZTV13ClassConstant;
	_ZTV13ClassFieldMap;
	_ZTV13ClassVerifier;
	_ZTV13CleanCallback;
	_ZTV13cmovD_regNode;
	_ZTV13cmovF_regNode;
	_ZTV13cmovI_memNode;
	_ZTV13cmovI_regNode;
	_ZTV13cmovL_memNode;
	_ZTV13cmovL_regNode;
	_ZTV13cmovN_regNode;
	_ZTV13cmovP_regNode;
	_ZTV13cmpLTMaskNode;
	_ZTV13CmpLTMaskNode;
	_ZTV13cmpOpUCF2Oper;
	_ZTV13CodeStubArray;
	_ZTV13_CodeStubList;
	_ZTV13CollectedHeap;
	_ZTV13CompileReplay;
	_ZTV13ConcEdenSpace;
	_ZTV13ConNKlassNode;
	_ZTV13CountBitsNode;
	_ZTV13DeadlockCycle;
	_ZTV13decI_rRegNode;
	_ZTV13decL_rRegNode;
	_ZTV13DecoderLocker;
	_ZTV13defaultStream;
	_ZTV13DivByZeroStub;
	_ZTV13divI_rRegNode;
	_ZTV13divL_rRegNode;
	_ZTV13ErrorReporter;
	_ZTV13ExceptionBlob;
	_ZTV13ExceptionInfo;
	_ZTV13ExtractUBNode;
	_ZTV13FilteredField;
	_ZTV13Fingerprinter;
	_ZTV13FloatConstant;
	_ZTV13G1AllocRegion;
	_ZTV13G1Mux2Closure;
	_ZTV13GCCauseSetter;
	_ZTV13GCCauseString;
	_ZTV13GCHeapSummary;
	_ZTV13GCMutexLocker;
	_ZTV13GCTaskManager;
	_ZTV13GrowableArrayI10FrameValueE;
	_ZTV13GrowableArrayI10PausePhaseE;
	_ZTV13GrowableArrayI10SWNodeInfoE;
	_ZTV13GrowableArrayI11KlassHandleE;
	_ZTV13GrowableArrayI11OrderedPairE;
	_ZTV13GrowableArrayI13BlockProbPairE;
	_ZTV13GrowableArrayI14instanceHandleE;
	_ZTV13GrowableArrayI15BytecodeCPEntryE;
	_ZTV13GrowableArrayI4PairIP6Method14QualifiedState11ResourceObjEE;
	_ZTV13GrowableArrayI6HandleE;
	_ZTV13GrowableArrayIhE;
	_ZTV13GrowableArrayIiE;
	_ZTV13GrowableArrayIjE;
	_ZTV13GrowableArrayIlE;
	_ZTV13GrowableArrayImE;
	_ZTV13GrowableArrayIN12Dependencies11DepArgumentEE;
	_ZTV13GrowableArrayIN13ReplacedNodes12ReplacedNodeEE;
	_ZTV13GrowableArrayIN7Compile19PrintInliningBufferEE;
	_ZTV13GrowableArrayIN7Compile8ConstantEE;
	_ZTV13GrowableArrayIP10CFGElementE;
	_ZTV13GrowableArrayIP10ChangeItemE;
	_ZTV13GrowableArrayIP10ciInstanceE;
	_ZTV13GrowableArrayIP10ciMetadataE;
	_ZTV13GrowableArrayIP10HeapRegionE;
	_ZTV13GrowableArrayIP10HistoEntryE;
	_ZTV13GrowableArrayIP10InlineTreeE;
	_ZTV13GrowableArrayIP10JavaThreadE;
	_ZTV13GrowableArrayIP10MemoryPoolE;
	_ZTV13GrowableArrayIP10Node_NotesE;
	_ZTV13GrowableArrayIP10ScopeValueE;
	_ZTV13GrowableArrayIP10StackValueE;
	_ZTV13GrowableArrayIP11FieldBufferE;
	_ZTV13GrowableArrayIP11InstructionE;
	_ZTV13GrowableArrayIP11markOopDescE;
	_ZTV13GrowableArrayIP11MonitorInfoE;
	_ZTV13GrowableArrayIP12ciBaseObjectE;
	_ZTV13GrowableArrayIP12ConstantPoolE;
	_ZTV13GrowableArrayIP12MergeMemNodeE;
	_ZTV13GrowableArrayIP12MonitorValueE;
	_ZTV13GrowableArrayIP12PointsToNodeE;
	_ZTV13GrowableArrayIP12ProfilerNodeE;
	_ZTV13GrowableArrayIP12StringConcatE;
	_ZTV13GrowableArrayIP13CallGeneratorE;
	_ZTV13GrowableArrayIP13FilteredFieldE;
	_ZTV13GrowableArrayIP13InstanceKlassE;
	_ZTV13GrowableArrayIP13MemoryManagerE;
	_ZTV13GrowableArrayIP13SafePointNodeE;
	_ZTV13GrowableArrayIP14compiledVFrameE;
	_ZTV13GrowableArrayIP14CompilerThreadE;
	_ZTV13GrowableArrayIP14JavaObjectNodeE;
	_ZTV13GrowableArrayIP14KlassInfoEntryE;
	_ZTV13GrowableArrayIP14StackFrameInfoE;
	_ZTV13GrowableArrayIP15_ciInlineRecordE;
	_ZTV13GrowableArrayIP15ciInstanceKlassE;
	_ZTV13GrowableArrayIP15_ciMethodRecordE;
	_ZTV13GrowableArrayIP15ciReturnAddressE;
	_ZTV13GrowableArrayIP15ClassLoaderDataE;
	_ZTV13GrowableArrayIP15EmptyVtableSlotE;
	_ZTV13GrowableArrayIP15GrowableElementE;
	_ZTV13GrowableArrayIP15instanceOopDescE;
	_ZTV13GrowableArrayIP15JvmtiRawMonitorE;
	_ZTV13GrowableArrayIP15PseudoScopeMarkE;
	_ZTV13GrowableArrayIP16AbstractLockNodeE;
	_ZTV13GrowableArrayIP16DCmdArgumentInfoE;
	_ZTV13GrowableArrayIP16HistogramElementE;
	_ZTV13GrowableArrayIP17JvmtiCodeBlobDescE;
	_ZTV13GrowableArrayIP19_ciMethodDataRecordE;
	_ZTV13GrowableArrayIP19DerivedPointerEntryE;
	_ZTV13GrowableArrayIP19PreviousVersionNodeE;
	_ZTV13GrowableArrayIP20ClassFieldDescriptorE;
	_ZTV13GrowableArrayIP24_jvmtiExtensionEventInfoE;
	_ZTV13GrowableArrayIP25SafePointScalarObjectNodeE;
	_ZTV13GrowableArrayIP26jvmtiDeferredLocalVariableE;
	_ZTV13GrowableArrayIP27_jvmtiExtensionFunctionInfoE;
	_ZTV13GrowableArrayIP27_jvmtiMonitorStackDepthInfoE;
	_ZTV13GrowableArrayIP29jvmtiDeferredLocalVariableSetE;
	_ZTV13GrowableArrayIP4NodeE;
	_ZTV13GrowableArrayIP5KlassE;
	_ZTV13GrowableArrayIP5LabelE;
	_ZTV13GrowableArrayIP6ciTypeE;
	_ZTV13GrowableArrayIP6DepMemE;
	_ZTV13GrowableArrayIP6MethodE;
	_ZTV13GrowableArrayIP6RFrameE;
	_ZTV13GrowableArrayIP6SymbolE;
	_ZTV13GrowableArrayIP7CFGEdgeE;
	_ZTV13GrowableArrayIP7ciBlockE;
	_ZTV13GrowableArrayIP7ciFieldE;
	_ZTV13GrowableArrayIP7ciKlassE;
	_ZTV13GrowableArrayIP7MonitorE;
	_ZTV13GrowableArrayIP7oopDescE;
	_ZTV13GrowableArrayIP7PhiNodeE;
	_ZTV13GrowableArrayIP8ciMethodE;
	_ZTV13GrowableArrayIP8ciSymbolE;
	_ZTV13GrowableArrayIP8CodeBlobE;
	_ZTV13GrowableArrayIP8DCmdInfoE;
	_ZTV13GrowableArrayIP8_jobjectE;
	_ZTV13GrowableArrayIP8MetadataE;
	_ZTV13GrowableArrayIP8PerfDataE;
	_ZTV13GrowableArrayIP9DIR_ChunkE;
	_ZTV13GrowableArrayIP9FieldNodeE;
	_ZTV13GrowableArrayIP9LIR_ConstE;
	_ZTV13GrowableArrayIP9Node_ListE;
	_ZTV13GrowableArrayIPcE;
	_ZTV13GrowableArrayIPhE;
	_ZTV13GrowableArrayIPK4TypeE;
	_ZTV13GrowableArrayIPKcE;
	_ZTV13GrowableArrayIPN10ciTypeFlow5BlockEE;
	_ZTV13GrowableArrayIPN10ciTypeFlow9JsrRecordEE;
	_ZTV13GrowableArrayIPN14MethodLiveness10BasicBlockEE;
	_ZTV13GrowableArrayIPN16ComputeMoveOrder13MoveOperationEE;
	_ZTV13GrowableArrayIPN16HierarchyVisitorI14PrintHierarchyE4NodeEE;
	_ZTV13GrowableArrayIPN16HierarchyVisitorI16KeepAliveVisitorE4NodeEE;
	_ZTV13GrowableArrayIPN16HierarchyVisitorI22FindMethodsByErasedSigE4NodeEE;
	_ZTV13GrowableArrayIPN16MutableNUMASpace9LGRPSpaceEE;
	_ZTV13GrowableArrayIPvE;
	_ZTV13GuardedMemory;
	_ZTV13HeapRegionSet;
	_ZTV13HRRSStatsIter;
	_ZTV13IdealLoopTree;
	_ZTV13IdealVariable;
	_ZTV13immNKlassOper;
	_ZTV13incI_rRegNode;
	_ZTV13incL_rRegNode;
	_ZTV13InstanceKlass;
	_ZTV13IntervalArray;
	_ZTV13IntervalsList;
	_ZTV13jmpConUCFNode;
	_ZTV13JvmtiGCMarker;
	_ZTV13LIR_Assembler;
	_ZTV13LIR_OpConvert;
	_ZTV13LIR_OpRoundFP;
	_ZTV13loadConD0Node;
	_ZTV13loadConF0Node;
	_ZTV13loadConI0Node;
	_ZTV13loadConL0Node;
	_ZTV13loadConN0Node;
	_ZTV13loadConP0Node;
	_ZTV13LoadFenceNode;
	_ZTV13loadKlassNode;
	_ZTV13LoadKlassNode;
	_ZTV13loadRangeNode;
	_ZTV13LoadRangeNode;
	_ZTV13LoadStoreNode;
	_ZTV13LocationValue;
	_ZTV13LoopLimitNode;
	_ZTV13MachIdealNode;
	_ZTV13maxI_rRegNode;
	_ZTV13MemoryManager;
	_ZTV13MetaspacePool;
	_ZTV13MethodMatcher;
	_ZTV13minI_rRegNode;
	_ZTV13modI_rRegNode;
	_ZTV13modL_rRegNode;
	_ZTV13mulI_rRegNode;
	_ZTV13mulL_rRegNode;
	_ZTV13MutexLockerEx;
	_ZTV13MutexUnlocker;
	_ZTV13negI_rRegNode;
	_ZTV13negL_rRegNode;
	_ZTV13networkStream;
	_ZTV13NewMultiArray;
	_ZTV13nmethodBucket;
	_ZTV13nmethodLocker;
	_ZTV13NMethodMarker;
	_ZTV13ObjArrayKlass;
	_ZTV13ObjectClosure;
	_ZTV13OffsetClosure;
	_ZTV13OverflowINode;
	_ZTV13OverflowLNode;
	_ZTV13ParMarkBitMap;
	_ZTV13ParNewGenTask;
	_ZTV13PerfByteArray;
	_ZTV13PerfTraceTime;
	_ZTV13PhaseCoalesce;
	_ZTV13PhasePeephole;
	_ZTV13PhaseRegAlloc;
	_ZTV13PhiSimplifier;
	_ZTV13popCountINode;
	_ZTV13PopCountINode;
	_ZTV13popCountLNode;
	_ZTV13PopCountLNode;
	_ZTV13prefetchrNode;
	_ZTV13ProfileInvoke;
	_ZTV13PSHeapSummary;
	_ZTV13RelocCallback;
	_ZTV13RelocIterator;
	_ZTV13ResourceArray;
	_ZTV13RetTableEntry;
	_ZTV13rFlagsRegOper;
	_ZTV13SafepointBlob;
	_ZTV13SafePointNode;
	_ZTV13ScanRSClosure;
	_ZTV13SCMemProjNode;
	_ZTV13ServiceThread;
	_ZTV13SignatureInfo;
	_ZTV13SingletonBlob;
	_ZTV13SpaceCounters;
	_ZTV13sqrtD_immNode;
	_ZTV13sqrtD_memNode;
	_ZTV13sqrtD_regNode;
	_ZTV13sqrtF_immNode;
	_ZTV13sqrtF_memNode;
	_ZTV13sqrtF_regNode;
	_ZTV13StackIteratorIP7oopDescL10MemoryType5EE;
	_ZTV13StackMapFrame;
	_ZTV13StackMapTable;
	_ZTV13StateRestorer;
	_ZTV13storeImmBNode;
	_ZTV13storeImmINode;
	_ZTV13storeImmLNode;
	_ZTV13storeImmNNode;
	_ZTV13storeImmPNode;
	_ZTV13StrEqualsNode;
	_ZTV13StubAssembler;
	_ZTV13StubGenerator;
	_ZTV13StubInterface;
	_ZTV13subI_rRegNode;
	_ZTV13subL_rRegNode;
	_ZTV13subP_rRegNode;
	_ZTV13SurvRateGroup;
	_ZTV13SymbolClosure;
	_ZTV13SymbolHashMap;
	_ZTV13TempNewSymbol;
	_ZTV13testI_regNode;
	_ZTV13testL_regNode;
	_ZTV13testN_memNode;
	_ZTV13testN_regNode;
	_ZTV13testP_memNode;
	_ZTV13testP_regNode;
	_ZTV13testU_regNode;
	_ZTV13ThreadClosure;
	_ZTV13TypeNarrowOop;
	_ZTV13TypeNarrowPtr;
	_ZTV13URShiftVBNode;
	_ZTV13URShiftVINode;
	_ZTV13URShiftVLNode;
	_ZTV13URShiftVSNode;
	_ZTV13ValueMapArray;
	_ZTV13ValueMapEntry;
	_ZTV13ValueRecorderIP8_jobjectE;
	_ZTV13ValueRecorderIP8MetadataE;
	_ZTV13ValueSetArray;
	_ZTV13VerifyClosure;
	_ZTV13VM_Deoptimize;
	_ZTV13VM_HeapDumper;
	_ZTV13VM_RevokeBias;
	_ZTV13VM_ThreadDump;
	_ZTV13VM_ThreadStop;
	_ZTV13vor4B_regNode;
	_ZTV13vor8B_regNode;
	_ZTV13vshiftcntNode;
	_ZTV13WatcherThread;
	_ZTV13_XHandlerList;
	_ZTV13xmlTextStream;
	_ZTV13xorI_rRegNode;
	_ZTV13xorL_rRegNode;
	_ZTV13YoungGCTracer;
	_ZTV14addD_mem_0Node;
	_ZTV14addF_mem_0Node;
	_ZTV14AllFieldStream;
	_ZTV14BasicHashtableIL10MemoryType1EE;
	_ZTV14BasicHashtableIL10MemoryType4EE;
	_ZTV14BasicHashtableIL10MemoryType5EE;
	_ZTV14BasicHashtableIL10MemoryType7EE;
	_ZTV14BasicHashtableIL10MemoryType9EE;
	_ZTV14BasicTypeArray;
	_ZTV14BlockListArray;
	_ZTV14BlockPairArray;
	_ZTV14BreakpointInfo;
	_ZTV14bufferedStream;
	_ZTV14BytecodeBuffer;
	_ZTV14Bytecode_field;
	_ZTV14BytecodeStream;
	_ZTV14CallRelocation;
	_ZTV14CardGeneration;
	_ZTV14ciCallTypeData;
	_ZTV14ciMethodBlocks;
	_ZTV14ciMethodHandle;
	_ZTV14ClassPathEntry;
	_ZTV14ClassStatsDCmd;
	_ZTV14ClearArrayNode;
	_ZTV14cmovD_regUNode;
	_ZTV14cmovF_regUNode;
	_ZTV14cmovI_memUNode;
	_ZTV14cmovI_regUNode;
	_ZTV14cmovL_memUNode;
	_ZTV14cmovL_regUNode;
	_ZTV14cmovN_regUNode;
	_ZTV14cmovP_regUNode;
	_ZTV14cmpLTMask0Node;
	_ZTV14CMSParMarkTask;
	_ZTV14CompilationLog;
	_ZTV14CompiledICInfo;
	_ZTV14CompiledRFrame;
	_ZTV14compiledVFrame;
	_ZTV14CompilerThread;
	_ZTV14CompileWrapper;
	_ZTV14compI_rRegNode;
	_ZTV14compL_rRegNode;
	_ZTV14compN_rRegNode;
	_ZTV14compP_rRegNode;
	_ZTV14compU_rRegNode;
	_ZTV14ConcurrentMark;
	_ZTV14ConversionStub;
	_ZTV14CopyFailedInfo;
	_ZTV14CSpaceCounters;
	_ZTV14DataRelocation;
	_ZTV14DCmdWithParser;
	_ZTV14DeoptimizeStub;
	_ZTV14DirtyCardQueue;
	_ZTV14DoubleConstant;
	_ZTV14ElfStringTable;
	_ZTV14ElfSymbolTable;
	_ZTV14EvacuationInfo;
	_ZTV14EventClassLoad;
	_ZTV14EventThreadEnd;
	_ZTV14ExceptionCache;
	_ZTV14ExceptionTable;
	_ZTV14externalVFrame;
	_ZTV14FastUnlockNode;
	_ZTV14FieldArrayInfo;
	_ZTV14FreelistLocker;
	_ZTV14FreeRegionList;
	_ZTV14G1CMOopClosure;
	_ZTV14G1GCPhaseTimes;
	_ZTV14G1HotCardCache;
	_ZTV14G1SurvivorPool;
	_ZTV14GenerateOopMap;
	_ZTV14GenerationPool;
	_ZTV14GenerationSpec;
	_ZTV14GetAndAddINode;
	_ZTV14GetAndAddLNode;
	_ZTV14GetAndSetINode;
	_ZTV14GetAndSetLNode;
	_ZTV14GetAndSetNNode;
	_ZTV14GetAndSetPNode;
	_ZTV14GSpaceCounters;
	_ZTV14HashtableEntryIP6SymbolL10MemoryType1EE;
	_ZTV14HashtableEntryIP6SymbolL10MemoryType9EE;
	_ZTV14HashtableEntryIP7nmethodL10MemoryType5EE;
	_ZTV14HashtableEntryIP7oopDescL10MemoryType9EE;
	_ZTV14HeapInspection;
	_ZTV14HSpaceCounters;
	_ZTV14immI_65535Oper;
	_ZTV14immL_65535Oper;
	_ZTV14ImmutableSpace;
	_ZTV14indOffset8Oper;
	_ZTV14InitializeNode;
	_ZTV14IntervalsArray;
	_ZTV14IntervalWalker;
	_ZTV14IsGCActiveMark;
	_ZTV14JavaObjectNode;
	_ZTV14jmpConUCF2Node;
	_ZTV14jmpLoopEndNode;
	_ZTV14JNIHandleBlock;
	_ZTV14JNIMethodBlock;
	_ZTV14JvmtiEventMark;
	_ZTV14JvmtiFramePops;
	_ZTV14KlassDepChange;
	_ZTV14KlassInfoEntry;
	_ZTV14KlassInfoHisto;
	_ZTV14KlassInfoTable;
	_ZTV14leaPIdxOffNode;
	_ZTV14LibraryCallKit;
	_ZTV14LinkedListImplI10MallocSiteLN11ResourceObj15allocation_typeE2EL10MemoryType10ELN17AllocFailStrategy13AllocFailEnumE1EE;
	_ZTV14LinkedListImplI20ReservedMemoryRegionLN11ResourceObj15allocation_typeE2EL10MemoryType10ELN17AllocFailStrategy13AllocFailEnumE1EE;
	_ZTV14LinkedListImplI21CommittedMemoryRegionLN11ResourceObj15allocation_typeE2EL10MemoryType10ELN17AllocFailStrategy13AllocFailEnumE1EE;
	_ZTV14LinkedListImplI27VirtualMemoryAllocationSiteLN11ResourceObj15allocation_typeE2EL10MemoryType10ELN17AllocFailStrategy13AllocFailEnumE1EE;
	_ZTV14LinkedListImplI7IntegerLN11ResourceObj15allocation_typeE2EL10MemoryType13ELN17AllocFailStrategy13AllocFailEnumE1EE;
	_ZTV14LinkedListNodeI10MallocSiteE;
	_ZTV14LinkedListNodeI20ReservedMemoryRegionE;
	_ZTV14LinkedListNodeI21CommittedMemoryRegionE;
	_ZTV14LinkedListNodeI27VirtualMemoryAllocationSiteE;
	_ZTV14LinkedListNodeI7IntegerE;
	_ZTV14LIR_OpAllocObj;
	_ZTV14LIR_OpJavaCall;
	_ZTV14loadConL32Node;
	_ZTV14loadConP31Node;
	_ZTV14loadNKlassNode;
	_ZTV14LoadNKlassNode;
	_ZTV14LoadVectorNode;
	_ZTV14log10D_regNode;
	_ZTV14LShiftCntVNode;
	_ZTV14MachBranchNode;
	_ZTV14MachEpilogNode;
	_ZTV14MachPrologNode;
	_ZTV14MachReturnNode;
	_ZTV14MacroAssembler;
	_ZTV14MergeMemStream;
	_ZTV14MetaspaceSizes;
	_ZTV14MethodConstant;
	_ZTV14MethodLiveness;
	_ZTV14MonitorClosure;
	_ZTV14mulD_mem_0Node;
	_ZTV14mulF_mem_0Node;
	_ZTV14mulI_mem_0Node;
	_ZTV14mulL_mem_0Node;
	_ZTV14NewObjectArray;
	_ZTV14No_GC_Verifier;
	_ZTV14NoRefDiscovery;
	_ZTV14ObjectConstant;
	_ZTV14oop_Relocation;
	_ZTV14ParScanClosure;
	_ZTV14ParseGenerator;
	_ZTV14PerRegionTable;
	_ZTV14PhaseIdealLoop;
	_ZTV14PhaseTraceTime;
	_ZTV14PhaseTransform;
	_ZTV14PrintHierarchy;
	_ZTV14PSPromotionLAB;
	_ZTV14PSRootsClosureILb0EE;
	_ZTV14PSRootsClosureILb1EE;
	_ZTV14PSVirtualSpace;
	_ZTV14RangeCheckStub;
	_ZTV14Repl2I_immNode;
	_ZTV14Repl2I_memNode;
	_ZTV14Repl2L_immNode;
	_ZTV14Repl2L_memNode;
	_ZTV14Repl2S_immNode;
	_ZTV14Repl4B_immNode;
	_ZTV14Repl4I_immNode;
	_ZTV14Repl4I_memNode;
	_ZTV14Repl4L_immNode;
	_ZTV14Repl4L_memNode;
	_ZTV14Repl4S_immNode;
	_ZTV14Repl8B_immNode;
	_ZTV14Repl8I_immNode;
	_ZTV14Repl8I_memNode;
	_ZTV14Repl8S_immNode;
	_ZTV14ReplicateBNode;
	_ZTV14ReplicateDNode;
	_ZTV14ReplicateFNode;
	_ZTV14ReplicateINode;
	_ZTV14ReplicateLNode;
	_ZTV14ReplicateSNode;
	_ZTV14rFlagsRegUOper;
	_ZTV14RoundFloatNode;
	_ZTV14RShiftCntVNode;
	_ZTV14salI_mem_1Node;
	_ZTV14salL_mem_1Node;
	_ZTV14sarI_mem_1Node;
	_ZTV14sarL_mem_1Node;
	_ZTV14ScrubRSClosure;
	_ZTV14shrI_mem_1Node;
	_ZTV14shrL_mem_1Node;
	_ZTV14StackFrameInfo;
	_ZTV14StackMapReader;
	_ZTV14StackMapStream;
	_ZTV14stackSlotDOper;
	_ZTV14stackSlotFOper;
	_ZTV14stackSlotIOper;
	_ZTV14stackSlotLOper;
	_ZTV14stackSlotPOper;
	_ZTV14StoreFenceNode;
	_ZTV14storeF_immNode;
	_ZTV14storeImmB0Node;
	_ZTV14storeImmC0Node;
	_ZTV14storeImmI0Node;
	_ZTV14storeImmL0Node;
	_ZTV14storeImmN0Node;
	_ZTV14storeImmP0Node;
	_ZTV14streamIndentor;
	_ZTV14StrIndexOfNode;
	_ZTV14StringEventLog;
	_ZTV14SumUsedClosure;
	_ZTV14SystemProperty;
	_ZTV14tailjmpIndNode;
	_ZTV14TaskQueueSuperILj131072EL10MemoryType1EE;
	_ZTV14TaskQueueSuperILj131072EL10MemoryType5EE;
	_ZTV14TaskQueueSuperILj131072EL10MemoryType7EE;
	_ZTV14TaskQueueSuperILj8192EL10MemoryType5EE;
	_ZTV14ThreadCritical;
	_ZTV14ThreadDumpDCmd;
	_ZTV14ThreadProfiler;
	_ZTV14ThreadSnapshot;
	_ZTV14TypeArrayKlass;
	_ZTV14UnsafeObjectOp;
	_ZTV14UnsafePrefetch;
	_ZTV14vadd2D_memNode;
	_ZTV14vadd2D_regNode;
	_ZTV14vadd2F_regNode;
	_ZTV14vadd2I_regNode;
	_ZTV14vadd2L_memNode;
	_ZTV14vadd2L_regNode;
	_ZTV14vadd2S_regNode;
	_ZTV14vadd4B_regNode;
	_ZTV14vadd4D_memNode;
	_ZTV14vadd4D_regNode;
	_ZTV14vadd4F_memNode;
	_ZTV14vadd4F_regNode;
	_ZTV14vadd4I_memNode;
	_ZTV14vadd4I_regNode;
	_ZTV14vadd4L_memNode;
	_ZTV14vadd4L_regNode;
	_ZTV14vadd4S_regNode;
	_ZTV14vadd8B_regNode;
	_ZTV14vadd8F_memNode;
	_ZTV14vadd8F_regNode;
	_ZTV14vadd8I_memNode;
	_ZTV14vadd8I_regNode;
	_ZTV14vadd8S_memNode;
	_ZTV14vadd8S_regNode;
	_ZTV14vand4B_regNode;
	_ZTV14vand8B_regNode;
	_ZTV14vdiv2D_memNode;
	_ZTV14vdiv2D_regNode;
	_ZTV14vdiv2F_regNode;
	_ZTV14vdiv4D_memNode;
	_ZTV14vdiv4D_regNode;
	_ZTV14vdiv4F_memNode;
	_ZTV14vdiv4F_regNode;
	_ZTV14vdiv8F_memNode;
	_ZTV14vdiv8F_regNode;
	_ZTV14VM_GetReceiver;
	_ZTV14VM_RotateGCLog;
	_ZTV14vmul2D_memNode;
	_ZTV14vmul2D_regNode;
	_ZTV14vmul2F_regNode;
	_ZTV14vmul2I_regNode;
	_ZTV14vmul2S_regNode;
	_ZTV14vmul4D_memNode;
	_ZTV14vmul4D_regNode;
	_ZTV14vmul4F_memNode;
	_ZTV14vmul4F_regNode;
	_ZTV14vmul4I_memNode;
	_ZTV14vmul4I_regNode;
	_ZTV14vmul4S_regNode;
	_ZTV14vmul8F_memNode;
	_ZTV14vmul8F_regNode;
	_ZTV14vmul8I_memNode;
	_ZTV14vmul8I_regNode;
	_ZTV14vmul8S_memNode;
	_ZTV14vmul8S_regNode;
	_ZTV14vor16B_memNode;
	_ZTV14vor16B_regNode;
	_ZTV14vor32B_memNode;
	_ZTV14vor32B_regNode;
	_ZTV14vsll2I_immNode;
	_ZTV14vsll2I_regNode;
	_ZTV14vsll2L_immNode;
	_ZTV14vsll2L_regNode;
	_ZTV14vsll2S_immNode;
	_ZTV14vsll2S_regNode;
	_ZTV14vsll4I_immNode;
	_ZTV14vsll4I_regNode;
	_ZTV14vsll4L_regNode;
	_ZTV14vsll4S_immNode;
	_ZTV14vsll4S_regNode;
	_ZTV14vsll8I_regNode;
	_ZTV14vsll8S_immNode;
	_ZTV14vsll8S_regNode;
	_ZTV14vsra2I_immNode;
	_ZTV14vsra2I_regNode;
	_ZTV14vsra2S_immNode;
	_ZTV14vsra2S_regNode;
	_ZTV14vsra4I_immNode;
	_ZTV14vsra4I_regNode;
	_ZTV14vsra4S_immNode;
	_ZTV14vsra4S_regNode;
	_ZTV14vsra8I_regNode;
	_ZTV14vsra8S_immNode;
	_ZTV14vsra8S_regNode;
	_ZTV14vsrl2I_immNode;
	_ZTV14vsrl2I_regNode;
	_ZTV14vsrl2L_immNode;
	_ZTV14vsrl2L_regNode;
	_ZTV14vsrl2S_immNode;
	_ZTV14vsrl2S_regNode;
	_ZTV14vsrl4I_immNode;
	_ZTV14vsrl4I_regNode;
	_ZTV14vsrl4L_regNode;
	_ZTV14vsrl4S_immNode;
	_ZTV14vsrl4S_regNode;
	_ZTV14vsrl8I_regNode;
	_ZTV14vsrl8S_immNode;
	_ZTV14vsrl8S_regNode;
	_ZTV14vsub2D_memNode;
	_ZTV14vsub2D_regNode;
	_ZTV14vsub2F_regNode;
	_ZTV14vsub2I_regNode;
	_ZTV14vsub2L_memNode;
	_ZTV14vsub2L_regNode;
	_ZTV14vsub2S_regNode;
	_ZTV14vsub4B_regNode;
	_ZTV14vsub4D_memNode;
	_ZTV14vsub4D_regNode;
	_ZTV14vsub4F_memNode;
	_ZTV14vsub4F_regNode;
	_ZTV14vsub4I_memNode;
	_ZTV14vsub4I_regNode;
	_ZTV14vsub4L_memNode;
	_ZTV14vsub4L_regNode;
	_ZTV14vsub4S_regNode;
	_ZTV14vsub8B_regNode;
	_ZTV14vsub8F_memNode;
	_ZTV14vsub8F_regNode;
	_ZTV14vsub8I_memNode;
	_ZTV14vsub8I_regNode;
	_ZTV14vsub8S_memNode;
	_ZTV14vsub8S_regNode;
	_ZTV14vxor4B_regNode;
	_ZTV14vxor8B_regNode;
	_ZTV14_XHandlerArray;
	_ZTV15AbstractDecoder;
	_ZTV15AddressConstant;
	_ZTV15AllAliveClosure;
	_ZTV15AttachOperation;
	_ZTV15BlockBeginArray;
	_ZTV15BytecodeClosure;
	_ZTV15Bytecode_invoke;
	_ZTV15BytecodePrinter;
	_ZTV15CallbackWrapper;
	_ZTV15CallProjections;
	_ZTV15CallRuntimeNode;
	_ZTV15ChangeJumpWiden;
	_ZTV15ChangeSwitchPad;
	_ZTV15checkCastPPNode;
	_ZTV15CheckCastPPNode;
	_ZTV15ciInstanceKlass;
	_ZTV15ciObjArrayKlass;
	_ZTV15ciObjectFactory;
	_ZTV15ciReturnAddress;
	_ZTV15ClassFileStream;
	_ZTV15ClassLoaderData;
	_ZTV15CLDToOopClosure;
	_ZTV15CMBitMapClosure;
	_ZTV15CMObjectClosure;
	_ZTV15cmovI_reg_gNode;
	_ZTV15cmovI_reg_lNode;
	_ZTV15cmpD_cc_immNode;
	_ZTV15cmpD_cc_memNode;
	_ZTV15cmpD_cc_regNode;
	_ZTV15cmpFastLockNode;
	_ZTV15cmpF_cc_immNode;
	_ZTV15cmpF_cc_memNode;
	_ZTV15cmpF_cc_regNode;
	_ZTV15CodeBlobClosure;
	_ZTV15CollectorPolicy;
	_ZTV15CommandLineDCmd;
	_ZTV15ConnectionGraph;
	_ZTV15ContiguousSpace;
	_ZTV15CountedLoopNode;
	_ZTV15DCmdFactoryImplI11VersionDCmdE;
	_ZTV15DCmdFactoryImplI12HeapDumpDCmdE;
	_ZTV15DCmdFactoryImplI12SystemGCDCmdE;
	_ZTV15DCmdFactoryImplI12VMUptimeDCmdE;
	_ZTV15DCmdFactoryImplI14ClassStatsDCmdE;
	_ZTV15DCmdFactoryImplI14ThreadDumpDCmdE;
	_ZTV15DCmdFactoryImplI15CommandLineDCmdE;
	_ZTV15DCmdFactoryImplI15RotateGCLogDCmdE;
	_ZTV15DCmdFactoryImplI16PrintVMFlagsDCmdE;
	_ZTV15DCmdFactoryImplI17JMXStartLocalDCmdE;
	_ZTV15DCmdFactoryImplI17JMXStopRemoteDCmdE;
	_ZTV15DCmdFactoryImplI18ClassHistogramDCmdE;
	_ZTV15DCmdFactoryImplI18JMXStartRemoteDCmdE;
	_ZTV15DCmdFactoryImplI19RunFinalizationDCmdE;
	_ZTV15DCmdFactoryImplI25PrintSystemPropertiesDCmdE;
	_ZTV15DCmdFactoryImplI7NMTDCmdE;
	_ZTV15DCmdFactoryImplI8HelpDCmdE;
	_ZTV15EmptyVtableSlot;
	_ZTV15EventThreadPark;
	_ZTV15ExceptionObject;
	_ZTV15FastScanClosure;
	_ZTV15FieldLayoutInfo;
	_ZTV15FieldReassigner;
	_ZTV15FieldStreamBase;
	_ZTV15Filtering_DCTOC;
	_ZTV15G1CollectedHeap;
	_ZTV15G1ParCopyHelper;
	_ZTV15G1ParVerifyTask;
	_ZTV15G1YoungGenSizer;
	_ZTV15gcLogFileStream;
	_ZTV15GCMemoryManager;
	_ZTV15GenDCmdArgument;
	_ZTV15GenerationSizer;
	_ZTV15GenSpaceMangler;
	_ZTV15GlobalTLABStats;
	_ZTV15GrowableElement;
	_ZTV15HeapRegionDCTOC;
	_ZTV15ICStubInterface;
	_ZTV15immL_32bitsOper;
	_ZTV15indOffset32Oper;
	_ZTV15InstructionMark;
	_ZTV15interpretedNode;
	_ZTV15JavaCallWrapper;
	_ZTV15JavaFieldStream;
	_ZTV15jmpLoopEndUNode;
	_ZTV15JNILocalsDumper;
	_ZTV15JNITraceWrapper;
	_ZTV15JvmtiBreakpoint;
	_ZTV15JvmtiTagHashmap;
	_ZTV15JVMTraceWrapper;
	_ZTV15leaP8NarrowNode;
	_ZTV15LIR_OpArrayCopy;
	_ZTV15LIR_OpListArray;
	_ZTV15LIR_OpListStack;
	_ZTV15LIR_OpTypeCheck;
	_ZTV15loadConUL32Node;
	_ZTV15loadPLockedNode;
	_ZTV15LoadPLockedNode;
	_ZTV15MarkSweepPolicy;
	_ZTV15MemberNameTable;
	_ZTV15MemProfilerTask;
	_ZTV15MemReporterBase;
	_ZTV15MetaspaceTracer;
	_ZTV15ModUnionClosure;
	_ZTV15MonitorExitStub;
	_ZTV15MonitorLockerEx;
	_ZTV15mulHiL_rRegNode;
	_ZTV15MultiBranchData;
	_ZTV15MultiBranchNode;
	_ZTV15MutexUnlockerEx;
	_ZTV15NativeCallStack;
	_ZTV15NeverBranchNode;
	_ZTV15NewInstanceStub;
	_ZTV15no_rax_RegLOper;
	_ZTV15no_rax_RegPOper;
	_ZTV15no_rbp_RegPOper;
	_ZTV15no_rcx_RegIOper;
	_ZTV15no_rcx_RegLOper;
	_ZTV15orI_mem_immNode;
	_ZTV15orL_mem_immNode;
	_ZTV15PerfLongCounter;
	_ZTV15PerfLongVariant;
	_ZTV15PhaseStringOpts;
	_ZTV15poll_Relocation;
	_ZTV15prefetchrT0Node;
	_ZTV15prefetchrT2Node;
	_ZTV15PseudoScopeMark;
	_ZTV15ReferencePolicy;
	_ZTV15Repl16B_immNode;
	_ZTV15Repl16S_immNode;
	_ZTV15Repl2D_zeroNode;
	_ZTV15Repl2F_zeroNode;
	_ZTV15Repl2I_zeroNode;
	_ZTV15Repl2L_zeroNode;
	_ZTV15Repl2S_zeroNode;
	_ZTV15Repl32B_immNode;
	_ZTV15Repl4B_zeroNode;
	_ZTV15Repl4D_zeroNode;
	_ZTV15Repl4F_zeroNode;
	_ZTV15Repl4I_zeroNode;
	_ZTV15Repl4L_zeroNode;
	_ZTV15Repl4S_zeroNode;
	_ZTV15Repl8B_zeroNode;
	_ZTV15Repl8F_zeroNode;
	_ZTV15Repl8I_zeroNode;
	_ZTV15Repl8S_zeroNode;
	_ZTV15ResourceTracker;
	_ZTV15RotateGCLogDCmd;
	_ZTV15RoundDoubleNode;
	_ZTV15runtimeStubNode;
	_ZTV15salI_mem_CLNode;
	_ZTV15salI_rReg_1Node;
	_ZTV15salL_mem_CLNode;
	_ZTV15salL_rReg_1Node;
	_ZTV15sarI_mem_CLNode;
	_ZTV15sarI_rReg_1Node;
	_ZTV15sarL_mem_CLNode;
	_ZTV15sarL_rReg_1Node;
	_ZTV15sarL_rReg_2Node;
	_ZTV15ScopeValueArray;
	_ZTV15SerialOldTracer;
	_ZTV15shrI_mem_CLNode;
	_ZTV15shrI_rReg_1Node;
	_ZTV15shrL_mem_CLNode;
	_ZTV15shrL_rReg_1Node;
	_ZTV15SignatureStream;
	_ZTV15SimpleScopeDesc;
	_ZTV15StatSamplerTask;
	_ZTV15storeD0_immNode;
	_ZTV15storeImmCM0Node;
	_ZTV15storeImmI16Node;
	_ZTV15storeNKlassNode;
	_ZTV15StoreNKlassNode;
	_ZTV15StoreVectorNode;
	_ZTV15SwitchRangeList;
	_ZTV15TestMappedArray;
	_ZTV15ThreadBlockInVM;
	_ZTV15ThreadLocalNode;
	_ZTV15ThreadRootsTask;
	_ZTV15TwoOopHashtableIP5KlassL10MemoryType1EE;
	_ZTV15TwoOopHashtableIP6SymbolL10MemoryType1EE;
	_ZTV15TypeMetadataPtr;
	_ZTV15TypeNarrowKlass;
	_ZTV15UnsafeGetObject;
	_ZTV15UnsafePutObject;
	_ZTV15vadd16B_memNode;
	_ZTV15vadd16B_regNode;
	_ZTV15vadd16S_memNode;
	_ZTV15vadd16S_regNode;
	_ZTV15vadd32B_memNode;
	_ZTV15vadd32B_regNode;
	_ZTV15ValueStackArray;
	_ZTV15ValueStackStack;
	_ZTV15vand16B_memNode;
	_ZTV15vand16B_regNode;
	_ZTV15vand32B_memNode;
	_ZTV15vand32B_regNode;
	_ZTV15VirtualCallData;
	_ZTV15VM_GC_Operation;
	_ZTV15VM_LinuxDllLoad;
	_ZTV15VM_PrintThreads;
	_ZTV15vmul16S_memNode;
	_ZTV15vmul16S_regNode;
	_ZTV15vshiftcnt_0Node;
	_ZTV15vsll16S_regNode;
	_ZTV15vsra16S_regNode;
	_ZTV15vsrl16S_regNode;
	_ZTV15vsub16B_memNode;
	_ZTV15vsub16B_regNode;
	_ZTV15vsub16S_memNode;
	_ZTV15vsub16S_regNode;
	_ZTV15vsub32B_memNode;
	_ZTV15vsub32B_regNode;
	_ZTV15vxor16B_memNode;
	_ZTV15vxor16B_regNode;
	_ZTV15vxor32B_memNode;
	_ZTV15vxor32B_regNode;
	_ZTV15WorkerDataArrayIdE;
	_ZTV15WorkerDataArrayIiE;
	_ZTV15WorkerDataArrayImE;
	_ZTV16absD_reg_regNode;
	_ZTV16absF_reg_regNode;
	_ZTV16AbstractCompiler;
	_ZTV16AbstractGangTask;
	_ZTV16AbstractLockNode;
	_ZTV16AbstractWorkGang;
	_ZTV16addD_reg_immNode;
	_ZTV16addD_reg_memNode;
	_ZTV16addD_reg_regNode;
	_ZTV16addF_reg_immNode;
	_ZTV16addF_reg_memNode;
	_ZTV16addF_reg_regNode;
	_ZTV16addI_mem_immNode;
	_ZTV16addL_mem_immNode;
	_ZTV16andI_mem_immNode;
	_ZTV16andL_mem_immNode;
	_ZTV16ArgumentIterator;
	_ZTV16array_equalsNode;
	_ZTV16BacktraceBuilder;
	_ZTV16BCEscapeAnalyzer;
	_ZTV16BlockOffsetArray;
	_ZTV16BlockOffsetTable;
	_ZTV16CallLeafNoFPNode;
	_ZTV16CFGPrinterOutput;
	_ZTV16ChunkPoolCleaner;
	_ZTV16ciBytecodeStream;
	_ZTV16ciTypeArrayKlass;
	_ZTV16cmovD_regUCFNode;
	_ZTV16cmovF_regUCFNode;
	_ZTV16cmovI_memUCFNode;
	_ZTV16cmovI_regUCFNode;
	_ZTV16cmovL_memUCFNode;
	_ZTV16cmovL_regUCFNode;
	_ZTV16cmovN_regUCFNode;
	_ZTV16cmovP_regUCFNode;
	_ZTV16CMSLoopCountWarn;
	_ZTV16CMSMemoryManager;
	_ZTV16CMSParRemarkTask;
	_ZTV16CodeRootSetTable;
	_ZTV16CompactibleSpace;
	_ZTV16CompiledICHolder;
	_ZTV16CompilerCounters;
	_ZTV16CompressedStream;
	_ZTV16ComputeCallStack;
	_ZTV16ComputeMoveOrder;
	_ZTV16ConstantIntValue;
	_ZTV16convXI2D_regNode;
	_ZTV16convXI2F_regNode;
	_ZTV16DCmdArgumentInfo;
	_ZTV16DecodeNKlassNode;
	_ZTV16DefNewGeneration;
	_ZTV16divD_reg_immNode;
	_ZTV16divD_reg_memNode;
	_ZTV16divD_reg_regNode;
	_ZTV16divF_reg_immNode;
	_ZTV16divF_reg_memNode;
	_ZTV16divF_reg_regNode;
	_ZTV16DoNothingClosure;
	_ZTV16DumpAllocClosure;
	_ZTV16ElfFuncDescTable;
	_ZTV16EncodePKlassNode;
	_ZTV16EventClassUnload;
	_ZTV16EventCompilation;
	_ZTV16EventThreadSleep;
	_ZTV16EventThreadStart;
	_ZTV16FilteringClosure;
	_ZTV16FlatProfilerTask;
	_ZTV16FlexibleGangTask;
	_ZTV16FlexibleWorkGang;
	_ZTV16G1ParCopyClosureIL9G1Barrier0EL6G1Mark0EE;
	_ZTV16G1ParCopyClosureIL9G1Barrier0EL6G1Mark1EE;
	_ZTV16G1ParCopyClosureIL9G1Barrier0EL6G1Mark2EE;
	_ZTV16G1ParCopyClosureIL9G1Barrier1EL6G1Mark0EE;
	_ZTV16G1ParCopyClosureIL9G1Barrier2EL6G1Mark0EE;
	_ZTV16G1ParCopyClosureIL9G1Barrier2EL6G1Mark1EE;
	_ZTV16G1ParCopyClosureIL9G1Barrier2EL6G1Mark2EE;
	_ZTV16G1ParGCAllocator;
	_ZTV16G1ParNoteEndTask;
	_ZTV16G1ParScanClosure;
	_ZTV16G1PreBarrierStub;
	_ZTV16G1TriggerClosure;
	_ZTV16GCPolicyCounters;
	_ZTV16GenCollectedHeap;
	_ZTV16GenericTaskQueueI12ObjArrayTaskL10MemoryType5ELj8192EE;
	_ZTV16GenericTaskQueueI8StarTaskL10MemoryType1ELj131072EE;
	_ZTV16GenericTaskQueueI8StarTaskL10MemoryType5ELj131072EE;
	_ZTV16GenericTaskQueueImL10MemoryType7ELj131072EE;
	_ZTV16GenericTaskQueueIP7oopDescL10MemoryType5ELj131072EE;
	_ZTV16HeapObjectDumper;
	_ZTV16HeapRegionRemSet;
	_ZTV16HierarchyVisitorI14PrintHierarchyE;
	_ZTV16HierarchyVisitorI16KeepAliveVisitorE;
	_ZTV16HierarchyVisitorI22FindMethodsByErasedSigE;
	_ZTV16HistogramElement;
	_ZTV16HRSMtSafeChecker;
	_ZTV16InlineTableSizes;
	_ZTV16InstanceConstant;
	_ZTV16InstanceRefKlass;
	_ZTV16IRScopeDebugInfo;
	_ZTV16jmpCon_shortNode;
	_ZTV16jmpDir_shortNode;
	_ZTV16JNIGlobalsDumper;
	_ZTV16JvmtiAgentThread;
	_ZTV16JvmtiBreakpoints;
	_ZTV16JvmtiEnvIterator;
	_ZTV16JvmtiThreadState;
	_ZTV16KeepAliveClosure;
	_ZTV16KeepAliveVisitor;
	_ZTV16KlassInfoClosure;
	_ZTV16KlassScanClosure;
	_ZTV16leaP32NarrowNode;
	_ZTV16leaPIdxScaleNode;
	_ZTV16LibraryIntrinsic;
	_ZTV16LinearScanTimers;
	_ZTV16LinearScanWalker;
	_ZTV16LIR_OpAllocArray;
	_ZTV16LIR_OpVisitState;
	_ZTV16LoopTreeIterator;
	_ZTV16LRUMaxHeapPolicy;
	_ZTV16MachCallJavaNode;
	_ZTV16MachCallLeafNode;
	_ZTV16MachConstantNode;
	_ZTV16MachFastLockNode;
	_ZTV16MallocSiteWalker;
	_ZTV16MemRegionClosure;
	_ZTV16MetaspaceSummary;
	_ZTV16ModRefBarrierSet;
	_ZTV16MonitorEnterStub;
	_ZTV16MSCMemoryManager;
	_ZTV16mulD_reg_immNode;
	_ZTV16mulD_reg_memNode;
	_ZTV16mulD_reg_regNode;
	_ZTV16mulF_reg_immNode;
	_ZTV16mulF_reg_memNode;
	_ZTV16mulF_reg_regNode;
	_ZTV16mulI_mem_immNode;
	_ZTV16mulL_mem_immNode;
	_ZTV16MutableNUMASpace;
	_ZTV16negD_reg_regNode;
	_ZTV16negF_reg_regNode;
	_ZTV16NewTypeArrayStub;
	_ZTV16NotificationMark;
	_ZTV16NullCheckVisitor;
	_ZTV16ObjectStartArray;
	_ZTV16OldGCAllocRegion;
	_ZTV16OopsInGenClosure;
	_ZTV16orI_mem_rRegNode;
	_ZTV16orI_rReg_immNode;
	_ZTV16orI_rReg_memNode;
	_ZTV16orL_mem_rRegNode;
	_ZTV16orL_rReg_immNode;
	_ZTV16orL_rReg_memNode;
	_ZTV16OverflowAddINode;
	_ZTV16OverflowAddLNode;
	_ZTV16OverflowMulINode;
	_ZTV16OverflowMulLNode;
	_ZTV16OverflowSubINode;
	_ZTV16OverflowSubLNode;
	_ZTV16PackageHashtable;
	_ZTV16ParGCAllocBuffer;
	_ZTV16ParNewGeneration;
	_ZTV16ParRebuildRSTask;
	_ZTV16PerfLongConstant;
	_ZTV16PerfLongVariable;
	_ZTV16PhaseBlockLayout;
	_ZTV16PhaseMacroExpand;
	_ZTV16PhiResolverState;
	_ZTV16PlaceholderTable;
	_ZTV16PointsToIterator;
	_ZTV16PrefetchReadNode;
	_ZTV16prefetchrNTANode;
	_ZTV16prefetchwNTANode;
	_ZTV16PreserveJVMState;
	_ZTV16PrintVMFlagsDCmd;
	_ZTV16PSGenerationPool;
	_ZTV16PSIsAliveClosure;
	_ZTV16ReceiverTypeData;
	_ZTV16RefProcTaskProxy;
	_ZTV16RegisterVerifier;
	_ZTV16Repl16B_zeroNode;
	_ZTV16Repl16S_zeroNode;
	_ZTV16Repl32B_zeroNode;
	_ZTV16ResultTypeFinder;
	_ZTV16rFlagsRegUCFOper;
	_ZTV16rolI_rReg_CLNode;
	_ZTV16rolI_rReg_i1Node;
	_ZTV16rolI_rReg_i8Node;
	_ZTV16rolL_rReg_CLNode;
	_ZTV16rolL_rReg_i1Node;
	_ZTV16rolL_rReg_i8Node;
	_ZTV16rorI_rReg_CLNode;
	_ZTV16rorI_rReg_i1Node;
	_ZTV16rorI_rReg_i8Node;
	_ZTV16rorL_rReg_CLNode;
	_ZTV16rorL_rReg_i1Node;
	_ZTV16rorL_rReg_i8Node;
	_ZTV16SafeResourceMark;
	_ZTV16salI_mem_immNode;
	_ZTV16salI_rReg_CLNode;
	_ZTV16salL_mem_immNode;
	_ZTV16salL_rReg_CLNode;
	_ZTV16sarI_mem_immNode;
	_ZTV16sarI_rReg_CLNode;
	_ZTV16sarL_mem_immNode;
	_ZTV16sarL_rReg_63Node;
	_ZTV16sarL_rReg_CLNode;
	_ZTV16SATBMarkQueueSet;
	_ZTV16SerializeClosure;
	_ZTV16shrI_mem_immNode;
	_ZTV16shrI_rReg_CLNode;
	_ZTV16shrL_mem_immNode;
	_ZTV16shrL_rReg_CLNode;
	_ZTV16SignatureChekker;
	_ZTV16SimpleCompPolicy;
	_ZTV16SimpleDUIterator;
	_ZTV16SortedLinkedListI10MallocSiteXadL_Z19compare_malloc_siteRKS0_S2_EELN11ResourceObj15allocation_typeE2EL10MemoryType10ELN17AllocFailStrategy13AllocFailEnumE1EE;
	_ZTV16SortedLinkedListI10MallocSiteXadL_Z19compare_malloc_sizeRKS0_S2_EELN11ResourceObj15allocation_typeE2EL10MemoryType10ELN17AllocFailStrategy13AllocFailEnumE1EE;
	_ZTV16SortedLinkedListI20ReservedMemoryRegionXadL_Z27compare_virtual_memory_baseRKS0_S2_EELN11ResourceObj15allocation_typeE2EL10MemoryType10ELN17AllocFailStrategy13AllocFailEnumE1EE;
	_ZTV16SortedLinkedListI20ReservedMemoryRegionXadL_Z28compare_reserved_region_baseRKS0_S2_EELN11ResourceObj15allocation_typeE2EL10MemoryType10ELN17AllocFailStrategy13AllocFailEnumE1EE;
	_ZTV16SortedLinkedListI21CommittedMemoryRegionXadL_Z24compare_committed_regionRKS0_S2_EELN11ResourceObj15allocation_typeE2EL10MemoryType10ELN17AllocFailStrategy13AllocFailEnumE1EE;
	_ZTV16SortedLinkedListI27VirtualMemoryAllocationSiteXadL_Z23compare_allocation_siteRKS0_S2_EELN11ResourceObj15allocation_typeE2EL10MemoryType10ELN17AllocFailStrategy13AllocFailEnumE1EE;
	_ZTV16SortedLinkedListI27VirtualMemoryAllocationSiteXadL_Z27compare_virtual_memory_siteRKS0_S2_EELN11ResourceObj15allocation_typeE2EL10MemoryType10ELN17AllocFailStrategy13AllocFailEnumE1EE;
	_ZTV16SortedLinkedListI27VirtualMemoryAllocationSiteXadL_Z27compare_virtual_memory_sizeRKS0_S2_EELN11ResourceObj15allocation_typeE2EL10MemoryType10ELN17AllocFailStrategy13AllocFailEnumE1EE;
	_ZTV16SortedLinkedListI7IntegerXadL_Z15compare_IntegerRKS0_S2_EELN11ResourceObj15allocation_typeE2EL10MemoryType13ELN17AllocFailStrategy13AllocFailEnumE1EE;
	_ZTV16StackFrameStream;
	_ZTV16StatisticsWalker;
	_ZTV16StealMarkingTask;
	_ZTV16StrIntrinsicNode;
	_ZTV16subD_reg_immNode;
	_ZTV16subD_reg_memNode;
	_ZTV16subD_reg_regNode;
	_ZTV16subF_reg_immNode;
	_ZTV16subF_reg_memNode;
	_ZTV16subF_reg_regNode;
	_ZTV16subI_mem_immNode;
	_ZTV16subL_mem_immNode;
	_ZTV16SwitchRangeArray;
	_ZTV16ThreadDumpResult;
	_ZTV16ThreadStackTrace;
	_ZTV16ThreadStatistics;
	_ZTV16ThresholdSupport;
	_ZTV16treeCountClosureI9FreeChunk16AdaptiveFreeListIS0_EE;
	_ZTV16treeCountClosureI9Metablock8FreeListIS0_EE;
	_ZTV16treeCountClosureI9Metachunk8FreeListIS0_EE;
	_ZTV16UncommonTrapBlob;
	_ZTV16Unique_Node_List;
	_ZTV16UseCountComputer;
	_ZTV16VerifyOopClosure;
	_ZTV16VirtualSpaceList;
	_ZTV16VirtualSpaceNode;
	_ZTV16VM_CGC_Operation;
	_ZTV16VM_CMS_Operation;
	_ZTV16VM_DeoptimizeAll;
	_ZTV16VM_FindDeadlocks;
	_ZTV16VM_G1CollectFull;
	_ZTV16VM_GetFrameCount;
	_ZTV16VM_GetOrSetLocal;
	_ZTV16VM_GetStackTrace;
	_ZTV16VMOperationQueue;
	_ZTV16VM_UnlinkSymbols;
	_ZTV16xaddI_no_resNode;
	_ZTV16xaddL_no_resNode;
	_ZTV16xorI_mem_immNode;
	_ZTV16xorL_mem_immNode;
	_ZTV17AbstractAssembler;
	_ZTV17addI_mem_rRegNode;
	_ZTV17addI_rReg_immNode;
	_ZTV17addI_rReg_memNode;
	_ZTV17addL_mem_rRegNode;
	_ZTV17addL_rReg_immNode;
	_ZTV17addL_rReg_memNode;
	_ZTV17addP_rReg_immNode;
	_ZTV17AllocateArrayNode;
	_ZTV17AlwaysClearPolicy;
	_ZTV17AlwaysTrueClosure;
	_ZTV17and_cmpLTMaskNode;
	_ZTV17andI_mem_rRegNode;
	_ZTV17andI_rReg_immNode;
	_ZTV17andI_rReg_memNode;
	_ZTV17andL_mem_rRegNode;
	_ZTV17andL_rReg_immNode;
	_ZTV17andL_rReg_memNode;
	_ZTV17BeginSweepClosureI9FreeChunk16AdaptiveFreeListIS0_EE;
	_ZTV17BeginSweepClosureI9Metablock8FreeListIS0_EE;
	_ZTV17BeginSweepClosureI9Metachunk8FreeListIS0_EE;
	_ZTV17BlkClosureCareful;
	_ZTV17BoolObjectClosure;
	_ZTV17BytecodeAssembler;
	_ZTV17C1_MacroAssembler;
	_ZTV17CallingConvention;
	_ZTV17CallSiteDepChange;
	_ZTV17CardTableModRefBS;
	_ZTV17ciMultiBranchData;
	_ZTV17ciSignatureStream;
	_ZTV17ciVirtualCallData;
	_ZTV17ClassPathDirEntry;
	_ZTV17ClassPathZipEntry;
	_ZTV17cmpD_cc_immCFNode;
	_ZTV17cmpD_cc_memCFNode;
	_ZTV17cmpFastUnlockNode;
	_ZTV17cmpF_cc_immCFNode;
	_ZTV17cmpF_cc_memCFNode;
	_ZTV17cmpL3_reg_regNode;
	_ZTV17CMSIsAliveClosure;
	_ZTV17CodeBlobCollector;
	_ZTV17CollectorCounters;
	_ZTV17CompilationPolicy;
	_ZTV17compN_mem_immNode;
	_ZTV17ComputeEntryStack;
	_ZTV17ConcurrentGCTimer;
	_ZTV17ConstantLongValue;
	_ZTV17CopyMemoryManager;
	_ZTV17DebugScavengeRoot;
	_ZTV17decodeHeapOopNode;
	_ZTV17DeoptimizedRFrame;
	_ZTV17DeoptResourceMark;
	_ZTV17DirtyCardQueueSet;
	_ZTV17EdgeMoveOptimizer;
	_ZTV17encodeHeapOopNode;
	_ZTV17EventGCPhasePause;
	_ZTV17EventMetaspaceOOM;
	_ZTV17ExceptionInfoList;
	_ZTV17G1CodeBlobClosure;
	_ZTV17G1CollectorPolicy;
	_ZTV17G1HeapRegionTable;
	_ZTV17G1MemoryPoolSuper;
	_ZTV17G1MMUTrackerQueue;
	_ZTV17G1ParClosureSuper;
	_ZTV17G1PostBarrierStub;
	_ZTV17G1StringDedupStat;
	_ZTV17GenCompactClosure;
	_ZTV17HandleMarkCleaner;
	_ZTV17HeapRegionClosure;
	_ZTV17HeapRegionManager;
	_ZTV17HeapRegionSetBase;
	_ZTV17IdealGraphPrinter;
	_ZTV17indIndexScaleOper;
	_ZTV17InterpretedRFrame;
	_ZTV17interpretedVFrame;
	_ZTV17InterpreterOopMap;
	_ZTV17JavaCallArguments;
	_ZTV17jmpConU_shortNode;
	_ZTV17jmpLoopEndUCFNode;
	_ZTV17JMXStartLocalDCmd;
	_ZTV17JMXStopRemoteDCmd;
	_ZTV17JRT_Leaf_Verifier;
	_ZTV17jumpXtnd_addrNode;
	_ZTV17JvmtiCodeBlobDesc;
	_ZTV17KlassToOopClosure;
	_ZTV17LatestMethodCache;
	_ZTV17leaP_rReg_immNode;
	_ZTV17LIR_OpProfileCall;
	_ZTV17LIR_OpProfileType;
	_ZTV17LIR_OpUpdateCRC32;
	_ZTV17loadConNKlassNode;
	_ZTV17loadD_partialNode;
	_ZTV17MachNullCheckNode;
	_ZTV17MachSafePointNode;
	_ZTV17MachSpillCopyNode;
	_ZTV17MarkFromRootsTask;
	_ZTV17MemBarAcquireNode;
	_ZTV17MemBarReleaseNode;
	_ZTV17MemDetailReporter;
	_ZTV17MonitorAccessStub;
	_ZTV17MonitorUsedDumper;
	_ZTV17mulI_rReg_immNode;
	_ZTV17mulL_rReg_immNode;
	_ZTV17OSThreadWaitState;
	_ZTV17OverflowTaskQueueI12ObjArrayTaskL10MemoryType5ELj8192EE;
	_ZTV17OverflowTaskQueueI8StarTaskL10MemoryType1ELj131072EE;
	_ZTV17OverflowTaskQueueI8StarTaskL10MemoryType5ELj131072EE;
	_ZTV17OverflowTaskQueueImL10MemoryType7ELj131072EE;
	_ZTV17OverflowTaskQueueIP7oopDescL10MemoryType5ELj131072EE;
	_ZTV17ParallelOldTracer;
	_ZTV17popCountI_memNode;
	_ZTV17popCountL_memNode;
	_ZTV17prefetchAllocNode;
	_ZTV17PrefetchWriteNode;
	_ZTV17PrintRSetsClosure;
	_ZTV17PrintValueVisitor;
	_ZTV17ProfileReturnType;
	_ZTV17PSOldPromotionLAB;
	_ZTV17PushOrMarkClosure;
	_ZTV17RawBytecodeStream;
	_ZTV17RefProcPhase1Task;
	_ZTV17RefProcPhase2Task;
	_ZTV17RefProcPhase3Task;
	_ZTV17RelocatorListener;
	_ZTV17ResetNoHandleMark;
	_ZTV17ResourceHashtableI15BytecodeCPEntrytXadL_ZNS0_4hashERKS0_EEXadL_ZNS0_6equalsES2_S2_EELj256EE;
	_ZTV17ResourceHashtableIP6MethodiXadL_Z14primitive_hashIS1_EjRKT_EEXadL_Z16primitive_equalsIS1_EbS5_S5_EELj256EE;
	_ZTV17ReverseBytesINode;
	_ZTV17ReverseBytesLNode;
	_ZTV17ReverseBytesSNode;
	_ZTV17salI_rReg_immNode;
	_ZTV17salL_rReg_immNode;
	_ZTV17sarI_rReg_immNode;
	_ZTV17sarL_rReg_immNode;
	_ZTV17ScavengeRootsTask;
	_ZTV17SetHotnessClosure;
	_ZTV17shrI_rReg_immNode;
	_ZTV17shrL_rReg_immNode;
	_ZTV17SignalHandlerMark;
	_ZTV17SignatureIterator;
	_ZTV17StickyClassDumper;
	_ZTV17string_equalsNode;
	_ZTV17StubCodeGenerator;
	_ZTV17subI_mem_rRegNode;
	_ZTV17subI_rReg_immNode;
	_ZTV17subI_rReg_memNode;
	_ZTV17subL_mem_rRegNode;
	_ZTV17subL_rReg_immNode;
	_ZTV17subL_rReg_memNode;
	_ZTV17SymbolTableDumper;
	_ZTV17TaskQueueSetSuper;
	_ZTV17TenuredGeneration;
	_ZTV17testI_reg_immNode;
	_ZTV17testI_reg_memNode;
	_ZTV17testL_reg_immNode;
	_ZTV17testL_reg_memNode;
	_ZTV17TraceGen0TimeData;
	_ZTV17TraceGen1TimeData;
	_ZTV17TreeCensusClosureI9FreeChunk16AdaptiveFreeListIS0_EE;
	_ZTV17TreeCensusClosureI9Metablock8FreeListIS0_EE;
	_ZTV17TreeCensusClosureI9Metachunk8FreeListIS0_EE;
	_ZTV17TreeSearchClosureI9FreeChunk16AdaptiveFreeListIS0_EE;
	_ZTV17TreeSearchClosureI9Metablock8FreeListIS0_EE;
	_ZTV17TreeSearchClosureI9Metachunk8FreeListIS0_EE;
	_ZTV17UpdateOnlyClosure;
	_ZTV17ValueMapEntryList;
	_ZTV17VerifyCSetClosure;
	_ZTV17VerifyLiveClosure;
	_ZTV17VerifyMutexLocker;
	_ZTV17VerifyOopsClosure;
	_ZTV17vframeStreamForte;
	_ZTV17VM_BulkRevokeBias;
	_ZTV17VM_ForceSafepoint;
	_ZTV17VM_GenCollectFull;
	_ZTV17WarmCallGenerator;
	_ZTV17xorI_mem_rRegNode;
	_ZTV17xorI_rReg_im1Node;
	_ZTV17xorI_rReg_immNode;
	_ZTV17xorI_rReg_memNode;
	_ZTV17xorL_mem_rRegNode;
	_ZTV17xorL_rReg_im1Node;
	_ZTV17xorL_rReg_immNode;
	_ZTV17xorL_rReg_memNode;
	_ZTV18AdapterFingerPrint;
	_ZTV18AdaptiveSizePolicy;
	_ZTV18addD_reg_mem_0Node;
	_ZTV18addF_reg_mem_0Node;
	_ZTV18AlwaysAliveClosure;
	_ZTV18AlwaysFalseClosure;
	_ZTV18ASParNewGeneration;
	_ZTV18BaseBytecodeStream;
	_ZTV18BlkPrintingClosure;
	_ZTV18blsiI_rReg_memNode;
	_ZTV18blsiL_rReg_memNode;
	_ZTV18blsrI_rReg_memNode;
	_ZTV18blsrL_rReg_memNode;
	_ZTV18Bytecode_anewarray;
	_ZTV18Bytecode_checkcast;
	_ZTV18cadd_cmpLTMaskNode;
	_ZTV18CallLeafDirectNode;
	_ZTV18CallStaticJavaNode;
	_ZTV18CardTableExtension;
	_ZTV18ciExceptionHandler;
	_ZTV18ciReceiverTypeData;
	_ZTV18ClassHistogramDCmd;
	_ZTV18ClearedAllSoftRefs;
	_ZTV18cmpD_cc_reg_CFNode;
	_ZTV18cmpFastLockRTMNode;
	_ZTV18cmpF_cc_reg_CFNode;
	_ZTV18CMSConcMarkingTask;
	_ZTV18CMSPhaseAccounting;
	_ZTV18CompileTaskWrapper;
	_ZTV18compI_rReg_immNode;
	_ZTV18compI_rReg_memNode;
	_ZTV18compL_rReg_immNode;
	_ZTV18compL_rReg_memNode;
	_ZTV18compN_rReg_immNode;
	_ZTV18compN_rReg_memNode;
	_ZTV18compP_mem_rRegNode;
	_ZTV18compP_rReg_memNode;
	_ZTV18compU_rReg_immNode;
	_ZTV18compU_rReg_memNode;
	_ZTV18ConcurrentG1Refine;
	_ZTV18ConcurrentGCThread;
	_ZTV18constantPoolHandle;
	_ZTV18ConstraintCastNode;
	_ZTV18CountedLoopEndNode;
	_ZTV18CountHandleClosure;
	_ZTV18CriticalEdgeFinder;
	_ZTV18DeoptimizationBlob;
	_ZTV18DetectScavengeRoot;
	_ZTV18EncodeISOArrayNode;
	_ZTV18EventCodeCacheFull;
	_ZTV18EventCompilerPhase;
	_ZTV18EventGCHeapSummary;
	_ZTV18EventGCParallelOld;
	_ZTV18EventPSHeapSummary;
	_ZTV18ExceptionInfoArray;
	_ZTV18ExtendedOopClosure;
	_ZTV18FalseBitMapClosure;
	_ZTV18G1BlockOffsetArray;
	_ZTV18G1BlockOffsetTable;
	_ZTV18G1CMIsAliveClosure;
	_ZTV18G1DefaultAllocator;
	_ZTV18G1KeepAliveClosure;
	_ZTV18G1KlassScanClosure;
	_ZTV18G1ParCleanupCTTask;
	_ZTV18G1ParGCAllocBuffer;
	_ZTV18G1StringDedupEntry;
	_ZTV18G1StringDedupQueue;
	_ZTV18G1StringDedupTable;
	_ZTV18GenCollectorPolicy;
	_ZTV18GenerationCounters;
	_ZTV18HighResTimeSampler;
	_ZTV18indIndexNarrowOper;
	_ZTV18indIndexOffsetOper;
	_ZTV18indirectNarrowOper;
	_ZTV18InstructionPrinter;
	_ZTV18InstructionVisitor;
	_ZTV18JMXStartRemoteDCmd;
	_ZTV18JNI_ArgumentPusher;
	_ZTV18KeepAliveRegistrar;
	_ZTV18LazyClassPathEntry;
	_ZTV18leaI_rReg_immINode;
	_ZTV18leaL_rReg_immLNode;
	_ZTV18LinkedListIteratorI10MallocSiteE;
	_ZTV18LinkedListIteratorI20ReservedMemoryRegionE;
	_ZTV18LinkedListIteratorI21CommittedMemoryRegionE;
	_ZTV18LinkedListIteratorI27VirtualMemoryAllocationSiteE;
	_ZTV18loadI2L_immU31Node;
	_ZTV18loadUB2L_immI8Node;
	_ZTV18MachBreakpointNode;
	_ZTV18membar_acquireNode;
	_ZTV18MemBarCPUOrderNode;
	_ZTV18membar_releaseNode;
	_ZTV18MemBarVolatileNode;
	_ZTV18MemRegionClosureRO;
	_ZTV18MemSummaryReporter;
	_ZTV18ModUnionClosurePar;
	_ZTV18mulD_reg_mem_0Node;
	_ZTV18mulF_reg_mem_0Node;
	_ZTV18MutatorAllocRegion;
	_ZTV18NewObjectArrayStub;
	_ZTV18ObjectToOopClosure;
	_ZTV18orI_mem_rReg_0Node;
	_ZTV18orI_rReg_mem_0Node;
	_ZTV18orL_mem_rReg_0Node;
	_ZTV18orL_rReg_mem_0Node;
	_ZTV18ParametersTypeData;
	_ZTV18PerfStringConstant;
	_ZTV18PerfStringVariable;
	_ZTV18PhaseRemoveUseless;
	_ZTV18PrintRegionClosure;
	_ZTV18PSKeepAliveClosure;
	_ZTV18PSRefProcTaskProxy;
	_ZTV18PushAndMarkClosure;
	_ZTV18RedefineVerifyMark;
	_ZTV18ReferenceProcessor;
	_ZTV18RefProcEnqueueTask;
	_ZTV18RemarkKlassClosure;
	_ZTV18rep_fast_stosbNode;
	_ZTV18ReverseBytesUSNode;
	_ZTV18rolI_rReg_i1_0Node;
	_ZTV18rolI_rReg_i8_0Node;
	_ZTV18rolI_rReg_imm1Node;
	_ZTV18rolI_rReg_imm8Node;
	_ZTV18rolL_rReg_i1_0Node;
	_ZTV18rolL_rReg_i8_0Node;
	_ZTV18rolL_rReg_imm1Node;
	_ZTV18rolL_rReg_imm8Node;
	_ZTV18rorI_rReg_i1_0Node;
	_ZTV18rorI_rReg_i8_0Node;
	_ZTV18rorI_rReg_imm1Node;
	_ZTV18rorI_rReg_imm8Node;
	_ZTV18rorL_rReg_i1_0Node;
	_ZTV18rorL_rReg_i8_0Node;
	_ZTV18rorL_rReg_imm1Node;
	_ZTV18rorL_rReg_imm8Node;
	_ZTV18roundFloat_nopNode;
	_ZTV18safePoint_pollNode;
	_ZTV18ScanWeakRefClosure;
	_ZTV18SetupItableClosure;
	_ZTV18ShortLoopOptimizer;
	_ZTV18SignatureTypeNames;
	_ZTV18SimpleRootsClosure;
	_ZTV18staticBufferStream;
	_ZTV18storeImmNKlassNode;
	_ZTV18string_compareNode;
	_ZTV18string_indexofNode;
	_ZTV18SymbolHashMapEntry;
	_ZTV18TagObjectCollector;
	_ZTV18TailCalljmpIndNode;
	_ZTV18testN_mem_reg0Node;
	_ZTV18testP_mem_reg0Node;
	_ZTV18ThreadInVMfromJava;
	_ZTV18ThreadProfilerMark;
	_ZTV18ThreadTimesClosure;
	_ZTV18UnsafePrefetchRead;
	_ZTV18UpdateRSetDeferred;
	_ZTV18UpdateRSOopClosure;
	_ZTV18ValueMapEntryArray;
	_ZTV18VerifyCTGenClosure;
	_ZTV18VerifyFieldClosure;
	_ZTV18VerifyKlassClosure;
	_ZTV18VerifyRootsClosure;
	_ZTV18vframeStreamCommon;
	_ZTV18VM_DeoptimizeFrame;
	_ZTV18VM_RedefineClasses;
	_ZTV18vsll2I_reg_immNode;
	_ZTV18vsll2L_reg_immNode;
	_ZTV18vsll2S_reg_immNode;
	_ZTV18vsll4I_reg_immNode;
	_ZTV18vsll4L_reg_immNode;
	_ZTV18vsll4S_reg_immNode;
	_ZTV18vsll8I_reg_immNode;
	_ZTV18vsll8S_reg_immNode;
	_ZTV18vsra2I_reg_immNode;
	_ZTV18vsra2S_reg_immNode;
	_ZTV18vsra4I_reg_immNode;
	_ZTV18vsra4S_reg_immNode;
	_ZTV18vsra8I_reg_immNode;
	_ZTV18vsra8S_reg_immNode;
	_ZTV18vsrl2I_reg_immNode;
	_ZTV18vsrl2L_reg_immNode;
	_ZTV18vsrl2S_reg_immNode;
	_ZTV18vsrl4I_reg_immNode;
	_ZTV18vsrl4L_reg_immNode;
	_ZTV18vsrl4S_reg_immNode;
	_ZTV18vsrl8I_reg_immNode;
	_ZTV18vsrl8S_reg_immNode;
	_ZTV19AdapterHandlerTable;
	_ZTV19addI_mem_rReg_0Node;
	_ZTV19addI_rReg_mem_0Node;
	_ZTV19addL_mem_rReg_0Node;
	_ZTV19addL_rReg_mem_0Node;
	_ZTV19and_cmpLTMask_0Node;
	_ZTV19andI_mem_rReg_0Node;
	_ZTV19andI_rReg_mem_0Node;
	_ZTV19andL_mem_rReg_0Node;
	_ZTV19andL_rReg_mem_0Node;
	_ZTV19BasicHashtableEntryIL10MemoryType4EE;
	_ZTV19BasicHashtableEntryIL10MemoryType9EE;
	_ZTV19blsiI_rReg_rRegNode;
	_ZTV19blsiL_rReg_rRegNode;
	_ZTV19blsrI_rReg_rRegNode;
	_ZTV19blsrL_rReg_rRegNode;
	_ZTV19BufferingOopClosure;
	_ZTV19Bytecode_instanceof;
	_ZTV19Bytecode_member_ref;
	_ZTV19CallDynamicJavaNode;
	_ZTV19ciConstantPoolCache;
	_ZTV19CMSKeepAliveClosure;
	_ZTV19CMSParGCThreadState;
	_ZTV19CMSRefProcTaskProxy;
	_ZTV19CollectedMemoryPool;
	_ZTV19compareAndSwapINode;
	_ZTV19CompareAndSwapINode;
	_ZTV19compareAndSwapLNode;
	_ZTV19CompareAndSwapLNode;
	_ZTV19compareAndSwapNNode;
	_ZTV19CompareAndSwapNNode;
	_ZTV19compareAndSwapPNode;
	_ZTV19CompareAndSwapPNode;
	_ZTV19ConcurrentLocksDump;
	_ZTV19ConstantDoubleValue;
	_ZTV19ContiguousSpacePool;
	_ZTV19convD2F_reg_memNode;
	_ZTV19convD2F_reg_regNode;
	_ZTV19convD2I_reg_regNode;
	_ZTV19convD2L_reg_regNode;
	_ZTV19convF2D_reg_memNode;
	_ZTV19convF2D_reg_regNode;
	_ZTV19convF2I_reg_regNode;
	_ZTV19convF2L_reg_regNode;
	_ZTV19convI2D_reg_memNode;
	_ZTV19convI2D_reg_regNode;
	_ZTV19convI2F_reg_memNode;
	_ZTV19convI2F_reg_regNode;
	_ZTV19convI2L_reg_regNode;
	_ZTV19convL2D_reg_memNode;
	_ZTV19convL2D_reg_regNode;
	_ZTV19convL2F_reg_memNode;
	_ZTV19convL2F_reg_regNode;
	_ZTV19convL2I_reg_regNode;
	_ZTV19CounterOverflowStub;
	_ZTV19CreateExceptionNode;
	_ZTV19DebugInfoReadStream;
	_ZTV19DecodeNarrowPtrNode;
	_ZTV19DerivedPointerEntry;
	_ZTV19DirectCallGenerator;
	_ZTV19EncodeNarrowPtrNode;
	_ZTV19EntryFrameOopFinder;
	_ZTV19EventEvacuationInfo;
	_ZTV19EventSweepCodeCache;
	_ZTV19FilteredFieldStream;
	_ZTV19FilterIntoCSClosure;
	_ZTV19FindInstanceClosure;
	_ZTV19FreeBlockDictionaryI9FreeChunkE;
	_ZTV19FreeBlockDictionaryI9MetablockE;
	_ZTV19FreeBlockDictionaryI9MetachunkE;
	_ZTV19FreeListSpace_DCTOC;
	_ZTV19G1BiasedMappedArrayIbE;
	_ZTV19G1BiasedMappedArrayIcE;
	_ZTV19G1BiasedMappedArrayIiE;
	_ZTV19G1BiasedMappedArrayIjE;
	_ZTV19G1BiasedMappedArrayIP10HeapRegionE;
	_ZTV19G1KlassCleaningTask;
	_ZTV19G1MonitoringSupport;
	_ZTV19G1ParFinalCountTask;
	_ZTV19G1StringDedupThread;
	_ZTV19G1STWIsAliveClosure;
	_ZTV19GeneratePairingInfo;
	_ZTV19GenericTaskQueueSetI16GenericTaskQueueIP7oopDescL10MemoryType5ELj131072EELS3_5EE;
	_ZTV19GenericTaskQueueSetI17OverflowTaskQueueI12ObjArrayTaskL10MemoryType5ELj8192EELS2_5EE;
	_ZTV19GenericTaskQueueSetI17OverflowTaskQueueI8StarTaskL10MemoryType1ELj131072EELS2_1EE;
	_ZTV19GenericTaskQueueSetI17OverflowTaskQueueI8StarTaskL10MemoryType5ELj131072EELS2_5EE;
	_ZTV19GenericTaskQueueSetI17OverflowTaskQueueImL10MemoryType7ELj131072EELS1_1EE;
	_ZTV19GenericTaskQueueSetI6PaddedI16GenericTaskQueueIP7oopDescL10MemoryType5ELj131072EELm64EELS4_5EE;
	_ZTV19ICacheStubGenerator;
	_ZTV19InlineCallGenerator;
	_ZTV19instanceKlassHandle;
	_ZTV19InstanceMirrorKlass;
	_ZTV19jmpConUCF_shortNode;
	_ZTV19JNIHistogramElement;
	_ZTV19jumpXtnd_offsetNode;
	_ZTV19JVMHistogramElement;
	_ZTV19JvmtiClassEventMark;
	_ZTV19JvmtiEnvThreadState;
	_ZTV19JvmtiEventCollector;
	_ZTV19JvmtiMonitorClosure;
	_ZTV19KnownGarbageClosure;
	_ZTV19leaPIdxScaleOffNode;
	_ZTV19LinearScanStatistic;
	_ZTV19LIR_InsertionBuffer;
	_ZTV19LoadD_unalignedNode;
	_ZTV19LoadL_unalignedNode;
	_ZTV19loadUS2L_immI16Node;
	_ZTV19MachCallRuntimeNode;
	_ZTV19MarkRefsIntoClosure;
	_ZTV19MaskFillerForNative;
	_ZTV19membar_volatileNode;
	_ZTV19MetadataOnStackMark;
	_ZTV19metadata_Relocation;
	_ZTV19MoveD2L_reg_regNode;
	_ZTV19MoveF2I_reg_regNode;
	_ZTV19MoveI2F_reg_regNode;
	_ZTV19MoveL2D_reg_regNode;
	_ZTV19MutableSpaceMangler;
	_ZTV19NonTieredCompPolicy;
	_ZTV19no_rax_rbx_RegPOper;
	_ZTV19no_rax_rdx_RegIOper;
	_ZTV19no_rax_rdx_RegLOper;
	_ZTV19NullCheckEliminator;
	_ZTV19OldToYoungRootsTask;
	_ZTV19OopMapForCacheEntry;
	_ZTV19ParKeepAliveClosure;
	_ZTV19ParKnownGarbageTask;
	_ZTV19ParNewMemoryManager;
	_ZTV19PerfTraceTimedEvent;
	_ZTV19PredicateFailedStub;
	_ZTV19prefetchAllocT0Node;
	_ZTV19prefetchAllocT2Node;
	_ZTV19PreviousVersionNode;
	_ZTV19PromotionFailedInfo;
	_ZTV19PSAlwaysTrueClosure;
	_ZTV19PSYoungPromotionLAB;
	_ZTV19RangeCheckPredicate;
	_ZTV19RefEnqueueTaskProxy;
	_ZTV19RefProcTaskExecutor;
	_ZTV19RehashableHashtableIP6SymbolL10MemoryType9EE;
	_ZTV19RehashableHashtableIP7oopDescL10MemoryType9EE;
	_ZTV19ReleaseForegroundGC;
	_ZTV19RestoreMarksClosure;
	_ZTV19roundDouble_nopNode;
	_ZTV19RunFinalizationDCmd;
	_ZTV19setTreeHintsClosureI9FreeChunk16AdaptiveFreeListIS0_EE;
	_ZTV19setTreeHintsClosureI9Metablock8FreeListIS0_EE;
	_ZTV19setTreeHintsClosureI9Metachunk8FreeListIS0_EE;
	_ZTV19SharedPathsMiscInfo;
	_ZTV19SimpleExceptionStub;
	_ZTV19SpeculativeTrapData;
	_ZTV19StableMemoryChecker;
	_ZTV19StackWalkCompPolicy;
	_ZTV19storeImmCM0_regNode;
	_ZTV19StringArrayArgument;
	_ZTV19SubstitutionChecker;
	_ZTV19SymbolPropertyTable;
	_ZTV19testI_reg_mem_0Node;
	_ZTV19testL_reg_mem_0Node;
	_ZTV19TraceCollectorStats;
	_ZTV19TraceVmCreationTime;
	_ZTV19UnsafePrefetchWrite;
	_ZTV19VerifyHandleClosure;
	_ZTV19VerifyMarkedClosure;
	_ZTV19VerifyRegionClosure;
	_ZTV19VirtualCallTypeData;
	_ZTV19VirtualMemoryWalker;
	_ZTV19VirtualSpaceSummary;
	_ZTV19VM_ChangeSingleStep;
	_ZTV19VM_CMS_Final_Remark;
	_ZTV19VM_CMS_Initial_Mark;
	_ZTV19VM_GetFrameLocation;
	_ZTV19vsll16S_reg_immNode;
	_ZTV19vsra16S_reg_immNode;
	_ZTV19vsrl16S_reg_immNode;
	_ZTV19WorkGangBarrierSync;
	_ZTV19xorI_mem_rReg_0Node;
	_ZTV19xorI_rReg_mem_0Node;
	_ZTV19xorL_mem_rReg_0Node;
	_ZTV19xorL_rReg_mem_0Node;
	_ZTV20AdjoiningGenerations;
	_ZTV20andI_rReg_imm255Node;
	_ZTV20andL_rReg_imm255Node;
	_ZTV20ArgumentSizeComputer;
	_ZTV20BinaryTreeDictionaryI9FreeChunk16AdaptiveFreeListIS0_EE;
	_ZTV20BinaryTreeDictionaryI9Metablock8FreeListIS0_EE;
	_ZTV20BinaryTreeDictionaryI9Metachunk8FreeListIS0_EE;
	_ZTV20blsiI_rReg_mem_0Node;
	_ZTV20blsiL_rReg_mem_0Node;
	_ZTV20blsmskI_rReg_memNode;
	_ZTV20blsmskL_rReg_memNode;
	_ZTV20blsrI_rReg_mem_0Node;
	_ZTV20blsrL_rReg_mem_0Node;
	_ZTV20BytecodeConstantPool;
	_ZTV20Bytecode_tableswitch;
	_ZTV20cadd_cmpLTMask_0Node;
	_ZTV20cadd_cmpLTMask_1Node;
	_ZTV20cadd_cmpLTMask_2Node;
	_ZTV20CheckForPreciseMarks;
	_ZTV20CheckForUnmarkedOops;
	_ZTV20ciParametersTypeData;
	_ZTV20ClassFieldDescriptor;
	_ZTV20ClearBitmapHRClosure;
	_ZTV20CMRootRegionScanTask;
	_ZTV20CodeBlobToOopClosure;
	_ZTV20CollectionSetChooser;
	_ZTV20CompressedReadStream;
	_ZTV20ConcurrentMarkThread;
	_ZTV20ConstantOopReadValue;
	_ZTV20ContiguousSpaceDCTOC;
	_ZTV20ControlFlowOptimizer;
	_ZTV20DebugInfoWriteStream;
	_ZTV20DeoptimizationMarker;
	_ZTV20EdenMutableSpacePool;
	_ZTV20encode_iso_arrayNode;
	_ZTV20EndTreeSearchClosureI9FreeChunk16AdaptiveFreeListIS0_EE;
	_ZTV20EndTreeSearchClosureI9Metablock8FreeListIS0_EE;
	_ZTV20EndTreeSearchClosureI9Metachunk8FreeListIS0_EE;
	_ZTV20EvacuationFailedInfo;
	_ZTV20EventCompilerFailure;
	_ZTV20EventJavaMonitorWait;
	_ZTV20EventLongFlagChanged;
	_ZTV20EventPromotionFailed;
	_ZTV20FieldAllocationCount;
	_ZTV20Final_Reshape_Counts;
	_ZTV20G1AlwaysAliveClosure;
	_ZTV20G1CMRefProcTaskProxy;
	_ZTV20G1CollectorPolicyExt;
	_ZTV20G1GenerationCounters;
	_ZTV20G1ParScanThreadState;
	_ZTV20G1ParScrubRemSetTask;
	_ZTV20GCHeapSummaryVisitor;
	_ZTV20GcThreadCountClosure;
	_ZTV20GenerationUsedHelper;
	_ZTV20GenericGrowableArray;
	_ZTV20GenGCEpilogueClosure;
	_ZTV20GenGCPrologueClosure;
	_ZTV20GlobalValueNumbering;
	_ZTV20indOffset8NarrowOper;
	_ZTV20InnerClassesIterator;
	_ZTV20InterpreterGenerator;
	_ZTV20JavaThreadSleepState;
	_ZTV20jmpConUCF2_shortNode;
	_ZTV20jmpLoopEnd_shortNode;
	_ZTV20JNILocalRootsClosure;
	_ZTV20JvmtiBreakpointCache;
	_ZTV20JvmtiMethodEventMark;
	_ZTV20JvmtiTagHashmapEntry;
	_ZTV20JvmtiThreadEventMark;
	_ZTV20leaPIdxOffNarrowNode;
	_ZTV20LinearLeastSquareFit;
	_ZTV20LinuxAttachOperation;
	_ZTV20LIR_OpCompareAndSwap;
	_ZTV20LoadedClassesClosure;
	_ZTV20loadI2L_immI_255Node;
	_ZTV20LRUCurrentHeapPolicy;
	_ZTV20MachConstantBaseNode;
	_ZTV20MallocMemorySnapshot;
	_ZTV20MarkFromRootsClosure;
	_ZTV20membar_acquire_0Node;
	_ZTV20membar_release_0Node;
	_ZTV20MemBarStoreStoreNode;
	_ZTV20MoveAndUpdateClosure;
	_ZTV20NonStaticFieldFiller;
	_ZTV20ObjectClosureCareful;
	_ZTV20orL_rReg_castP2XNode;
	_ZTV20OSThreadContendState;
	_ZTV20ParallelScavengeHeap;
	_ZTV20ParCompactionManager;
	_ZTV20ParMarkBitMapClosure;
	_ZTV20Pause_No_GC_Verifier;
	_ZTV20PerfLongSampleHelper;
	_ZTV20PrecleanKlassClosure;
	_ZTV20PredecessorValidator;
	_ZTV20prefetchAllocNTANode;
	_ZTV20PSAdaptiveSizePolicy;
	_ZTV20PSGenerationCounters;
	_ZTV20PSMarkSweepDecorator;
	_ZTV20ResolutionErrorTable;
	_ZTV20RethrowExceptionNode;
	_ZTV20ReturnedBytesClosureI9FreeChunk16AdaptiveFreeListIS0_EE;
	_ZTV20ReturnedBytesClosureI9Metablock8FreeListIS0_EE;
	_ZTV20ReturnedBytesClosureI9Metachunk8FreeListIS0_EE;
	_ZTV20rolI_rReg_Var_C0Node;
	_ZTV20rolL_rReg_Var_C0Node;
	_ZTV20rorI_rReg_Var_C0Node;
	_ZTV20rorL_rReg_Var_C0Node;
	_ZTV20SignatureTypePrinter;
	_ZTV20SlowSignatureHandler;
	_ZTV20StackValueCollection;
	_ZTV20StatefulMethodFamily;
	_ZTV20SubstitutionResolver;
	_ZTV20TerminatorTerminator;
	_ZTV20ThreadInVMfromNative;
	_ZTV20ThreadSafepointState;
	_ZTV20ThreadToNativeFromVM;
	_ZTV20unknown_compiledNode;
	_ZTV20UpwardsObjectClosure;
	_ZTV20VerifyAllBlksClosure;
	_ZTV20VerifyAllOopsClosure;
	_ZTV20VerifyCTSpaceClosure;
	_ZTV20VirtualCallGenerator;
	_ZTV20VM_ChangeBreakpoints;
	_ZTV20VM_GC_HeapInspection;
	_ZTV20VM_GetAllStackTraces;
	_ZTV20VM_HeapWalkOperation;
	_ZTV20VmThreadCountClosure;
	_ZTV20VM_WhiteBoxOperation;
	_ZTV20WaitForBarrierGCTask;
	_ZTV21AdaptivePaddedAverage;
	_ZTV21AdjustPointersClosure;
	_ZTV21blsiI_rReg_rReg_0Node;
	_ZTV21blsiL_rReg_rReg_0Node;
	_ZTV21blsmskI_rReg_rRegNode;
	_ZTV21blsmskL_rReg_rRegNode;
	_ZTV21blsrI_rReg_rReg_0Node;
	_ZTV21blsrL_rReg_rReg_0Node;
	_ZTV21Bytecode_loadconstant;
	_ZTV21Bytecode_lookupswitch;
	_ZTV21bytes_reverse_intNode;
	_ZTV21CallRuntimeDirectNode;
	_ZTV21CardTableEntryClosure;
	_ZTV21ciSpeculativeTrapData;
	_ZTV21ciVirtualCallTypeData;
	_ZTV21CMSAdaptiveSizePolicy;
	_ZTV21CMSParInitialMarkTask;
	_ZTV21CMSTokenSyncWithLocks;
	_ZTV21CompressedWriteStream;
	_ZTV21ConstantOopWriteValue;
	_ZTV21CSetChooserParUpdater;
	_ZTV21DirtyCardToOopClosure;
	_ZTV21EventEvacuationFailed;
	_ZTV21EventJavaMonitorEnter;
	_ZTV21EventMetaspaceSummary;
	_ZTV21G1OldGenMemoryManager;
	_ZTV21G1RegionToSpaceMapper;
	_ZTV21G1SpaceCompactClosure;
	_ZTV21G1STWRefProcTaskProxy;
	_ZTV21G1VerifyBitmapClosure;
	_ZTV21GCNotificationRequest;
	_ZTV21GenerationIsInClosure;
	_ZTV21GrowableArrayIteratorIN12Dependencies11DepArgumentEE;
	_ZTV21GrowableArrayIteratorIP12ciBaseObjectE;
	_ZTV21ImplicitNullCheckStub;
	_ZTV21indOffset32NarrowOper;
	_ZTV21JavaThreadParkedState;
	_ZTV21jmpLoopEndU_shortNode;
	_ZTV21JvmtiMonitorEventMark;
	_ZTV21LoaderConstraintTable;
	_ZTV21loadUS2L_immI_255Node;
	_ZTV21MarkActivationClosure;
	_ZTV21MemBarAcquireLockNode;
	_ZTV21MemBarReleaseLockNode;
	_ZTV21membar_storestoreNode;
	_ZTV21MemDetailDiffReporter;
	_ZTV21MetaspacePerfCounters;
	_ZTV21MoveD2L_reg_stackNode;
	_ZTV21MoveD2L_stack_regNode;
	_ZTV21MoveF2I_reg_stackNode;
	_ZTV21MoveF2I_stack_regNode;
	_ZTV21MoveI2F_reg_stackNode;
	_ZTV21MoveI2F_stack_regNode;
	_ZTV21MoveL2D_reg_stackNode;
	_ZTV21MoveL2D_stack_regNode;
	_ZTV21No_Safepoint_Verifier;
	_ZTV21NoYoungRegionsClosure;
	_ZTV21overflowAddI_rRegNode;
	_ZTV21overflowAddL_rRegNode;
	_ZTV21overflowMulI_rRegNode;
	_ZTV21overflowMulL_rRegNode;
	_ZTV21overflowNegI_rRegNode;
	_ZTV21overflowNegL_rRegNode;
	_ZTV21overflowSubI_rRegNode;
	_ZTV21overflowSubL_rRegNode;
	_ZTV21Par_PushOrMarkClosure;
	_ZTV21ParScanThreadStateSet;
	_ZTV21ParScanWeakRefClosure;
	_ZTV21PreviousVersionWalker;
	_ZTV21PrintFreeListsClosureI9FreeChunk16AdaptiveFreeListIS0_EE;
	_ZTV21PrintFreeListsClosureI9Metablock8FreeListIS0_EE;
	_ZTV21PrintFreeListsClosureI9Metachunk8FreeListIS0_EE;
	_ZTV21ProtectionDomainEntry;
	_ZTV21PSRefEnqueueTaskProxy;
	_ZTV21PSRefProcTaskExecutor;
	_ZTV21RecordInstanceClosure;
	_ZTV21rolI_rReg_Var_C32Node;
	_ZTV21rolL_rReg_Var_C64Node;
	_ZTV21rorI_rReg_Var_C32Node;
	_ZTV21rorL_rReg_Var_C64Node;
	_ZTV21setTreeSurplusClosureI9FreeChunk16AdaptiveFreeListIS0_EE;
	_ZTV21setTreeSurplusClosureI9Metablock8FreeListIS0_EE;
	_ZTV21setTreeSurplusClosureI9Metachunk8FreeListIS0_EE;
	_ZTV21SimpleThresholdPolicy;
	_ZTV21storeIConditionalNode;
	_ZTV21StoreIConditionalNode;
	_ZTV21storeLConditionalNode;
	_ZTV21StoreLConditionalNode;
	_ZTV21storePConditionalNode;
	_ZTV21StorePConditionalNode;
	_ZTV21SurrogateLockerThread;
	_ZTV21SurvivorGCAllocRegion;
	_ZTV21TaskQueueSetSuperImplIL10MemoryType1EE;
	_ZTV21TaskQueueSetSuperImplIL10MemoryType5EE;
	_ZTV21ThreadConcurrentLocks;
	_ZTV21ThreadsListEnumerator;
	_ZTV21ThreadStateTransition;
	_ZTV21TraceSuspendDebugBits;
	_ZTV21TwoOopCallbackWrapper;
	_ZTV21UnsafeGetAndSetObject;
	_ZTV21UpdateDensePrefixTask;
	_ZTV21ValueNumberingEffects;
	_ZTV21ValueNumberingVisitor;
	_ZTV21VerifyBlockBeginField;
	_ZTV21VirtualMemorySnapshot;
	_ZTV21VM_GetCurrentLocation;
	_ZTV21VM_ParallelGCSystemGC;
	_ZTV21WBIsKlassAliveClosure;
	_ZTV22AllocationContextStats;
	_ZTV22andI2L_rReg_imm255Node;
	_ZTV22andI_rReg_imm65535Node;
	_ZTV22andL_rReg_imm65535Node;
	_ZTV22ArgumentOffsetComputer;
	_ZTV22BlockOffsetSharedArray;
	_ZTV22blsmskI_rReg_mem_0Node;
	_ZTV22blsmskL_rReg_mem_0Node;
	_ZTV22bytes_reverse_longNode;
	_ZTV22CalcLiveObjectsClosure;
	_ZTV22CallLeafNoFPDirectNode;
	_ZTV22ClassFieldMapCacheMark;
	_ZTV22clearTreeCensusClosureI9FreeChunk16AdaptiveFreeListIS0_EE;
	_ZTV22clearTreeCensusClosureI9Metablock8FreeListIS0_EE;
	_ZTV22clearTreeCensusClosureI9Metachunk8FreeListIS0_EE;
	_ZTV22CMCountDataClosureBase;
	_ZTV22CMSParKeepAliveClosure;
	_ZTV22CMSRefEnqueueTaskProxy;
	_ZTV22CMSRefProcTaskExecutor;
	_ZTV22CodeCacheMemoryManager;
	_ZTV22CompilationResourceObj;
	_ZTV22ComputeLinearScanOrder;
	_ZTV22CountInterfacesClosure;
	_ZTV22countLeadingZerosINode;
	_ZTV22CountLeadingZerosINode;
	_ZTV22countLeadingZerosLNode;
	_ZTV22CountLeadingZerosLNode;
	_ZTV22EventDoubleFlagChanged;
	_ZTV22EventStringFlagChanged;
	_ZTV22FindMethodsByErasedSig;
	_ZTV22FreeRegionListIterator;
	_ZTV22G1ParallelCleaningTask;
	_ZTV22G1ParPushHeapRSClosure;
	_ZTV22G1RemarkThreadsClosure;
	_ZTV22G1STWDrainQueueClosure;
	_ZTV22GenTimeOfLastGCClosure;
	_ZTV22JniPeriodicCheckerTask;
	_ZTV22JvmtiLocationEventMark;
	_ZTV22leaPIdxScaleNarrowNode;
	_ZTV22leaPPosIdxScaleOffNode;
	_ZTV22loadI2L_immI_65535Node;
	_ZTV22MachCallStaticJavaNode;
	_ZTV22MarkDeadObjectsClosure;
	_ZTV22MarkingCodeBlobClosure;
	_ZTV22MemSummaryDiffReporter;
	_ZTV22MetaspaceMemoryManager;
	_ZTV22MutableSpaceUsedHelper;
	_ZTV22NotifyingBarrierGCTask;
	_ZTV22ObjectMarkerController;
	_ZTV22OffsetTableContigSpace;
	_ZTV22orL_rReg_castP2X_0Node;
	_ZTV22ParallelScavengeTracer;
	_ZTV22ParallelTaskTerminator;
	_ZTV22Par_ConcMarkingClosure;
	_ZTV22ParNewRefProcTaskProxy;
	_ZTV22Par_PushAndMarkClosure;
	_ZTV22poll_return_Relocation;
	_ZTV22PredictedCallGenerator;
	_ZTV22PrefetchAllocationNode;
	_ZTV22PreserveReexecuteState;
	_ZTV22PrintTreeCensusClosureI9FreeChunk16AdaptiveFreeListIS0_EE;
	_ZTV22PrintTreeCensusClosureI9Metablock8FreeListIS0_EE;
	_ZTV22PrintTreeCensusClosureI9Metachunk8FreeListIS0_EE;
	_ZTV22PSScavengeKlassClosure;
	_ZTV22ReleasingBarrierGCTask;
	_ZTV22ResolveOopMapConflicts;
	_ZTV22rolI_rReg_Var_C0_0Node;
	_ZTV22rolL_rReg_Var_C0_0Node;
	_ZTV22rorI_rReg_Var_C0_0Node;
	_ZTV22rorL_rReg_Var_C0_0Node;
	_ZTV22RTMLockingNamedCounter;
	_ZTV22safePoint_poll_farNode;
	_ZTV22SequentialSubTasksDone;
	_ZTV22ShouldNotReachHereNode;
	_ZTV22static_call_Relocation;
	_ZTV22static_stub_Relocation;
	_ZTV22string_indexof_conNode;
	_ZTV22ThreadLocalAllocBuffer;
	_ZTV22ThreadRootsMarkingTask;
	_ZTV22VerifyCleanCardClosure;
	_ZTV22VM_EnableBiasedLocking;
	_ZTV22VM_EnterInterpOnlyMode;
	_ZTV22VM_ForceAsyncSafepoint;
	_ZTV22VM_GetOwnedMonitorInfo;
	_ZTV22YoungRefCounterClosure;
	_ZTV22zerox_long_reg_regNode;
	_ZTV23AdaptiveWeightedAverage;
	_ZTV23AdvancedThresholdPolicy;
	_ZTV23andnI_rReg_rReg_memNode;
	_ZTV23andnL_rReg_rReg_memNode;
	_ZTV23ArrayStoreExceptionStub;
	_ZTV23AscendTreeCensusClosureI9FreeChunk16AdaptiveFreeListIS0_EE;
	_ZTV23AscendTreeCensusClosureI9Metablock8FreeListIS0_EE;
	_ZTV23AscendTreeCensusClosureI9Metachunk8FreeListIS0_EE;
	_ZTV23blsmskI_rReg_rReg_0Node;
	_ZTV23blsmskL_rReg_rReg_0Node;
	_ZTV23Bytecode_multianewarray;
	_ZTV23bytes_reverse_shortNode;
	_ZTV23CheckClaimValuesClosure;
	_ZTV23CheckForUnmarkedObjects;
	_ZTV23CLDToKlassAndOopClosure;
	_ZTV23CMConcurrentMarkingTask;
	_ZTV23compN_mem_imm_klassNode;
	_ZTV23convI2L_reg_mem_zexNode;
	_ZTV23convI2L_reg_reg_zexNode;
	_ZTV23countTrailingZerosINode;
	_ZTV23CountTrailingZerosINode;
	_ZTV23countTrailingZerosLNode;
	_ZTV23CountTrailingZerosLNode;
	_ZTV23divModI_rReg_divmodNode;
	_ZTV23divModL_rReg_divmodNode;
	_ZTV23EnableBiasedLockingTask;
	_ZTV23EventBooleanFlagChanged;
	_ZTV23EventExecuteVMOperation;
	_ZTV23EventGCPhasePauseLevel1;
	_ZTV23EventGCPhasePauseLevel2;
	_ZTV23EventGCPhasePauseLevel3;
	_ZTV23EventObjectCountAfterGC;
	_ZTV23G1AdjustPointersClosure;
	_ZTV23G1CMRefEnqueueTaskProxy;
	_ZTV23G1CMRefProcTaskExecutor;
	_ZTV23G1DefaultParGCAllocator;
	_ZTV23G1OldGenerationCounters;
	_ZTV23G1PrepareCompactClosure;
	_ZTV23G1RootRegionScanClosure;
	_ZTV23G1SATBCardTableModRefBS;
	_ZTV23G1StringDedupEntryCache;
	_ZTV23G1YoungGenMemoryManager;
	_ZTV23GetRSThreadVTimeClosure;
	_ZTV23indIndexScaleNarrowOper;
	_ZTV23indIndexScaleOffsetOper;
	_ZTV23InflatedMonitorsClosure;
	_ZTV23InterfaceVisiterClosure;
	_ZTV23InterpreterFrameClosure;
	_ZTV23JavaThreadStatusChanger;
	_ZTV23jmpLoopEndUCF_shortNode;
	_ZTV23JNI_ArgumentPusherArray;
	_ZTV23JNI_ArgumentPusherVaArg;
	_ZTV23JvmtiExceptionEventMark;
	_ZTV23JvmtiHideSingleStepping;
	_ZTV23LateInlineCallGenerator;
	_ZTV23LoadedClassesEnumerator;
	_ZTV23LoopInvariantCodeMotion;
	_ZTV23MachCallDynamicJavaNode;
	_ZTV23membar_acquire_lockNode;
	_ZTV23membar_release_lockNode;
	_ZTV23MetadataAwareOopClosure;
	_ZTV23NativeSignatureIterator;
	_ZTV23OopsInHeapRegionClosure;
	_ZTV23OopsInKlassOrGenClosure;
	_ZTV23ParGCAllocBufferWithBOT;
	_ZTV23Par_MarkRefsIntoClosure;
	_ZTV23partialSubtypeCheckNode;
	_ZTV23PartialSubtypeCheckNode;
	_ZTV23PhaseAggressiveCoalesce;
	_ZTV23PSScavengeMemoryManager;
	_ZTV23PSVirtualSpaceHighToLow;
	_ZTV23RememberProcessedThread;
	_ZTV23ResetClaimValuesClosure;
	_ZTV23rolI_rReg_Var_C32_0Node;
	_ZTV23rolL_rReg_Var_C64_0Node;
	_ZTV23rorI_rReg_Var_C32_0Node;
	_ZTV23rorL_rReg_Var_C64_0Node;
	_ZTV23runtime_call_Relocation;
	_ZTV23RuntimeHistogramElement;
	_ZTV23section_word_Relocation;
	_ZTV23StaticFinalFieldPrinter;
	_ZTV23SynchronizedGCTaskQueue;
	_ZTV23TraceMemoryManagerStats;
	_ZTV23VerifyNoCSetOopsClosure;
	_ZTV23virtual_call_Relocation;
	_ZTV23VM_G1IncCollectionPause;
	_ZTV23VM_HeapIterateOperation;
	_ZTV24AdaptiveSizePolicyOutput;
	_ZTV24andI2L_rReg_imm65535Node;
	_ZTV24andnI_rReg_rReg_rRegNode;
	_ZTV24andnL_rReg_rReg_rRegNode;
	_ZTV24CallStaticJavaDirectNode;
	_ZTV24CallStaticJavaHandleNode;
	_ZTV24CardTableModRefBSForCTRS;
	_ZTV24ciExceptionHandlerStream;
	_ZTV24ClearNoncleanCardWrapper;
	_ZTV24CMSConcMarkingTerminator;
	_ZTV24CompactibleFreeListSpace;
	_ZTV24compN_rReg_imm_klassNode;
	_ZTV24CompressedKlassSpacePool;
	_ZTV24ConcurrentG1RefineThread;
	_ZTV24DebugInformationRecorder;
	_ZTV24decodeKlass_not_nullNode;
	_ZTV24DescendTreeCensusClosureI9FreeChunk16AdaptiveFreeListIS0_EE;
	_ZTV24DescendTreeCensusClosureI9Metablock8FreeListIS0_EE;
	_ZTV24DescendTreeCensusClosureI9Metachunk8FreeListIS0_EE;
	_ZTV24DescendTreeSearchClosureI9FreeChunk16AdaptiveFreeListIS0_EE;
	_ZTV24DescendTreeSearchClosureI9Metablock8FreeListIS0_EE;
	_ZTV24DescendTreeSearchClosureI9Metachunk8FreeListIS0_EE;
	_ZTV24encodeKlass_not_nullNode;
	_ZTV24EventGCGarbageCollection;
	_ZTV24external_word_Relocation;
	_ZTV24FilterOutOfRegionClosure;
	_ZTV24G1AggregateCountDataTask;
	_ZTV24G1BlockOffsetSharedArray;
	_ZTV24G1CardCountsClearClosure;
	_ZTV24G1MappingChangedListener;
	_ZTV24G1OffsetTableContigSpace;
	_ZTV24G1RedirtyLoggedCardsTask;
	_ZTV24G1STWRefEnqueueTaskProxy;
	_ZTV24G1STWRefProcTaskExecutor;
	_ZTV24G1VerifyCardTableCleanup;
	_ZTV24GCAdaptivePolicyCounters;
	_ZTV24GCHeapSummaryEventSender;
	_ZTV24GenAdjustPointersClosure;
	_ZTV24HeapRegionRemSetIterator;
	_ZTV24indIndexOffsetNarrowOper;
	_ZTV24InstanceClassLoaderKlass;
	_ZTV24internal_word_Relocation;
	_ZTV24JvmtiCachedClassFieldMap;
	_ZTV24LoadStoreConditionalNode;
	_ZTV24MallocSiteHashtableEntry;
	_ZTV24MethodHandlesAdapterBlob;
	_ZTV24NoJvmtiVMObjectAllocMark;
	_ZTV24NoteStartOfMarkHRClosure;
	_ZTV24ParKnownGarbageHRClosure;
	_ZTV24Par_MarkFromRootsClosure;
	_ZTV24PostMCRemSetClearClosure;
	_ZTV24PrintAndVerifyOopClosure;
	_ZTV24PrintReachableOopClosure;
	_ZTV24PSMarkSweepMemoryManager;
	_ZTV24PSPromotionFailedClosure;
	_ZTV24PushAndMarkVerifyClosure;
	_ZTV24RebuildRegionSetsClosure;
	_ZTV24SurvivorMutableSpacePool;
	_ZTV24TypedMethodOptionMatcherIbE;
	_ZTV24TypedMethodOptionMatcherIlE;
	_ZTV24TypedMethodOptionMatcherImE;
	_ZTV24TypedMethodOptionMatcherIPKcE;
	_ZTV24VerifyLivenessOopClosure;
	_ZTV24VerifyRegionListsClosure;
	_ZTV24VM_GetObjectMonitorUsage;
	_ZTV24VM_ReportJavaOutOfMemory;
	_ZTV24VM_Version_StubGenerator;
	_ZTV24YieldingFlexibleGangTask;
	_ZTV24YieldingFlexibleWorkGang;
	_ZTV25andnI_rReg_rReg_mem_0Node;
	_ZTV25andnL_rReg_rReg_mem_0Node;
	_ZTV25BiasedLockingNamedCounter;
	_ZTV25CallDynamicJavaDirectNode;
	_ZTV25CheckBitmapClearHRClosure;
	_ZTV25ClearKlassModUnionClosure;
	_ZTV25CompiledArgumentOopFinder;
	_ZTV25ConcurrentMarkSweepPolicy;
	_ZTV25ConcurrentMarkSweepThread;
	_ZTV25ContiguousSpaceUsedHelper;
	_ZTV25DrainStacksCompactionTask;
	_ZTV25EventAllocObjectInNewTLAB;
	_ZTV25EventMetaspaceGCThreshold;
	_ZTV25G1CopyingKeepAliveClosure;
	_ZTV25G1ParVerifyFinalCountTask;
	_ZTV25G1YoungGenerationCounters;
	_ZTV25InterpreterMacroAssembler;
	_ZTV25LateInlineMHCallGenerator;
	_ZTV25leaPIdxScaleOffNarrowNode;
	_ZTV25MarkFromDirtyCardsClosure;
	_ZTV25MarkRefsIntoVerifyClosure;
	_ZTV25OldRegionSetMtSafeChecker;
	_ZTV25overflowAddI_rReg_immNode;
	_ZTV25overflowAddL_rReg_immNode;
	_ZTV25overflowMulI_rReg_immNode;
	_ZTV25overflowMulL_rReg_immNode;
	_ZTV25overflowSubI_rReg_immNode;
	_ZTV25overflowSubL_rReg_immNode;
	_ZTV25ParNewRefEnqueueTaskProxy;
	_ZTV25ParNewRefProcTaskExecutor;
	_ZTV25ParScanWithBarrierClosure;
	_ZTV25PhaseConservativeCoalesce;
	_ZTV25PrintSystemPropertiesDCmd;
	_ZTV25RegisterNMethodOopClosure;
	_ZTV25RTMLockingCalculationTask;
	_ZTV25SafePointScalarObjectNode;
	_ZTV25ScanClosureWithParBarrier;
	_ZTV25SpaceClosureRegionClosure;
	_ZTV25StealRegionCompactionTask;
	_ZTV25TearDownRegionSetsClosure;
	_ZTV25UncommonTrapCallGenerator;
	_ZTV25VerifyObjsInRegionClosure;
	_ZTV25VM_G1CollectForAllocation;
	_ZTV25VM_GetMultipleStackTraces;
	_ZTV25VM_JNIFunctionTableCopier;
	_ZTV26AbstractGangTaskWOopQueues;
	_ZTV26andnI_rReg_rReg_rReg_0Node;
	_ZTV26andnL_rReg_rReg_rReg_0Node;
	_ZTV26CheckGCTimeStampsHRClosure;
	_ZTV26CMSSynchronousYieldRequest;
	_ZTV26countLeadingZerosI_bsrNode;
	_ZTV26countLeadingZerosL_bsrNode;
	_ZTV26decodeHeapOop_not_nullNode;
	_ZTV26encodeHeapOop_not_nullNode;
	_ZTV26EventConcurrentModeFailure;
	_ZTV26EventGCG1GarbageCollection;
	_ZTV26EventGCReferenceStatistics;
	_ZTV26G1NoteEndOfConcMarkClosure;
	_ZTV26G1StringDedupEntryFreeList;
	_ZTV26G1VerifyCodeRootOopClosure;
	_ZTV26GenerationBlockSizeClosure;
	_ZTV26GenPrepareForVerifyClosure;
	_ZTV26indCompressedOopOffsetOper;
	_ZTV26indPosIndexScaleOffsetOper;
	_ZTV26jvmtiDeferredLocalVariable;
	_ZTV26JvmtiThreadEventTransition;
	_ZTV26MallocAllocationSiteWalker;
	_ZTV26MarkFromRootsVerifyClosure;
	_ZTV26MarkRefsIntoAndScanClosure;
	_ZTV26NoHeaderExtendedOopClosure;
	_ZTV26ProtectionDomainCacheTable;
	_ZTV26PSEvacuateFollowersClosure;
	_ZTV26PSGCAdaptivePolicyCounters;
	_ZTV26PSScavengeFromKlassClosure;
	_ZTV26ReleaseJavaMonitorsClosure;
	_ZTV26SuspendibleThreadSetJoiner;
	_ZTV26TraceCMSMemoryManagerStats;
	_ZTV26trampoline_stub_Relocation;
	_ZTV26VM_GenCollectForAllocation;
	_ZTV26VM_PopulateDumpSharedSpace;
	_ZTV26VM_WhiteBoxCleanMethodData;
	_ZTV26YieldingFlexibleGangWorker;
	_ZTV27AbstractRefProcTaskExecutor;
	_ZTV27AdapterHandlerTableIterator;
	_ZTV27AggregateCountDataHRClosure;
	_ZTV27ASConcurrentMarkSweepPolicy;
	_ZTV27AssertNonScavengableClosure;
	_ZTV27BlockOffsetArrayContigSpace;
	_ZTV27CMSDrainMarkingStackClosure;
	_ZTV27CMSGCAdaptivePolicyCounters;
	_ZTV27CMSPrecleanRefsYieldClosure;
	_ZTV27countTrailingZerosI_bsfNode;
	_ZTV27countTrailingZerosL_bsfNode;
	_ZTV27EventAllocObjectOutsideTLAB;
	_ZTV27EventGCOldGarbageCollection;
	_ZTV27FinalCountDataUpdateClosure;
	_ZTV27G1VerifyCodeRootBlobClosure;
	_ZTV27GenEnsureParsabilityClosure;
	_ZTV27GenerationBlockIsObjClosure;
	_ZTV27GenerationBlockStartClosure;
	_ZTV27GenerationObjIterateClosure;
	_ZTV27GenerationOopIterateClosure;
	_ZTV27InterpreterCodeletInterface;
	_ZTV27JavaThreadInObjectWaitState;
	_ZTV27JvmtiClassFileLoadEventMark;
	_ZTV27JvmtiClassFileReconstituter;
	_ZTV27JvmtiEnvThreadStateIterator;
	_ZTV27JvmtiTagHashmapEntryClosure;
	_ZTV27JvmtiVMObjectAllocEventMark;
	_ZTV27leaPCompressedOopOffsetNode;
	_ZTV27opt_virtual_call_Relocation;
	_ZTV27ParEvacuateFollowersClosure;
	_ZTV27Pause_No_Safepoint_Verifier;
	_ZTV27PrintReachableObjectClosure;
	_ZTV27PrintReachableRegionClosure;
	_ZTV27RebuildRSOutOfRegionClosure;
	_ZTV27RefineCardTableEntryClosure;
	_ZTV27RemoveForwardPointerClosure;
	_ZTV27SurvivorContiguousSpacePool;
	_ZTV27TimePartitionPhasesIterator;
	_ZTV27UnregisterNMethodOopClosure;
	_ZTV27VerifyKlassOopsKlassClosure;
	_ZTV27VM_GenCollectFullConcurrent;
	_ZTV27VM_GetThreadListStackTraces;
	_ZTV28AbstractInterpreterGenerator;
	_ZTV28CompactibleFreeListSpacePool;
	_ZTV28EventUnsignedLongFlagChanged;
	_ZTV28G1CMDrainMarkingStackClosure;
	_ZTV28G1CMKeepAliveAndDrainClosure;
	_ZTV28G1FreeHumongousRegionClosure;
	_ZTV28G1ParPreserveCMReferentsTask;
	_ZTV28GenGCSaveTopsBeforeGCClosure;
	_ZTV28InterpretedArgumentOopFinder;
	_ZTV28IterateOverHeapObjectClosure;
	_ZTV28JvmtiClassFileLoadHookPoster;
	_ZTV28JvmtiGetLoadedClassesClosure;
	_ZTV28leaPPosIdxScaleOffNarrowNode;
	_ZTV28OneContigSpaceCardGeneration;
	_ZTV28ParScanWithoutBarrierClosure;
	_ZTV28PostCompactionPrinterClosure;
	_ZTV28PredicatedIntrinsicGenerator;
	_ZTV28RebuildStrongCodeRootClosure;
	_ZTV28SurvivorSpacePrecleanClosure;
	_ZTV28TemplateInterpreterGenerator;
	_ZTV28TwoGenerationCollectorPolicy;
	_ZTV29CMCheckpointRootsFinalClosure;
	_ZTV29CMSInnerParMarkAndPushClosure;
	_ZTV29ConcurrentMarkSweepGeneration;
	_ZTV29CountNonCleanMemRegionClosure;
	_ZTV29DerivedPointerTableDeactivate;
	_ZTV29EventGCYoungGarbageCollection;
	_ZTV29G1BlockOffsetArrayContigSpace;
	_ZTV29G1InvokeIfNotTriggeredClosure;
	_ZTV29G1ParEvacuateFollowersClosure;
	_ZTV29G1StringSymbolTableUnlinkTask;
	_ZTV29G1UpdateRSOrPushRefOopClosure;
	_ZTV29GenerationIsInReservedClosure;
	_ZTV29indIndexScaleOffsetNarrowOper;
	_ZTV29jvmtiDeferredLocalVariableSet;
	_ZTV29LateInlineBoxingCallGenerator;
	_ZTV29LateInlineStringCallGenerator;
	_ZTV29MetadataAwareOopsInGenClosure;
	_ZTV29MethodHandlesAdapterGenerator;
	_ZTV29MoveL2D_stack_reg_partialNode;
	_ZTV29ObjectCountEventSenderClosure;
	_ZTV29ReferenceProcessorSpanMutator;
	_ZTV29RemoveSelfForwardPtrHRClosure;
	_ZTV29ScanMarkedObjectsAgainClosure;
	_ZTV29VerifyLiveObjectDataHRClosure;
	_ZTV29VerifyObjectStartArrayClosure;
	_ZTV29VirtualMemoryAllocationWalker;
	_ZTV29VM_GetCurrentContendedMonitor;
	_ZTV29VM_ParallelGCFailedAllocation;
	_ZTV2If;
	_ZTV2IR;
	_ZTV30AdaptivePaddedNoZeroDevAverage;
	_ZTV30BlockOffsetArrayNonContigSpace;
	_ZTV30CMBitMapMappingChangedListener;
	_ZTV30CMSParDrainMarkingStackClosure;
	_ZTV30CompressedLineNumberReadStream;
	_ZTV30G1ParRemoveSelfForwardPtrsTask;
	_ZTV30G1RegionMappingChangedListener;
	_ZTV30G1SATBCardTableLoggingModRefBS;
	_ZTV30IterateOopClosureRegionClosure;
	_ZTV30JvmtiConstantPoolReconstituter;
	_ZTV30JvmtiDynamicCodeEventCollector;
	_ZTV30JvmtiJavaThreadEventTransition;
	_ZTV30Par_MarkRefsIntoAndScanClosure;
	_ZTV30RemoveSelfForwardPtrObjClosure;
	_ZTV30VerifyStrongCodeRootOopClosure;
	_ZTV30VM_G1OperationWithAllocRequest;
	_ZTV31ASConcurrentMarkSweepGeneration;
	_ZTV31CheckClaimValuesInCSetHRClosure;
	_ZTV31CompressedLineNumberWriteStream;
	_ZTV31EvacuateFollowersClosureGeneral;
	_ZTV31EventMetaspaceAllocationFailure;
	_ZTV31G1StringDedupUnlinkOrOopsDoTask;
	_ZTV31GenerationSafeObjIterateClosure;
	_ZTV31HumongousRegionSetMtSafeChecker;
	_ZTV31IterateThroughHeapObjectClosure;
	_ZTV31loadConL_0x6666666666666667Node;
	_ZTV31partialSubtypeCheck_vs_ZeroNode;
	_ZTV31ReferenceProcessorAtomicMutator;
	_ZTV31ReferenceProcessorMTProcMutator;
	_ZTV31unnecessary_membar_volatileNode;
	_ZTV31VerifySDReachableAndLiveClosure;
	_ZTV31VM_CollectForMetadataAllocation;
	_ZTV32bytes_reverse_unsigned_shortNode;
	_ZTV32ClearLoggedCardTableEntryClosure;
	_ZTV32G1PrintRegionLivenessInfoClosure;
	_ZTV32indPosIndexScaleOffsetNarrowOper;
	_ZTV32JvmtiCompiledMethodLoadEventMark;
	_ZTV32JvmtiVMObjectAllocEventCollector;
	_ZTV32ParRootScanWithoutBarrierClosure;
	_ZTV32ReferenceProcessorIsAliveMutator;
	_ZTV33HasAccumulatedModifiedOopsClosure;
	_ZTV33IterateObjectClosureRegionClosure;
	_ZTV33MasterFreeRegionListMtSafeChecker;
	_ZTV34CMSConcMarkingTerminatorTerminator;
	_ZTV34EventMetaspaceChunkFreeListSummary;
	_ZTV34G1CardCountsMappingChangedListener;
	_ZTV34G1StringDedupUnlinkOrOopsDoClosure;
	_ZTV34InitializeDictReturnedBytesClosureI9FreeChunk16AdaptiveFreeListIS0_EE;
	_ZTV34InitializeDictReturnedBytesClosureI9Metablock8FreeListIS0_EE;
	_ZTV34InitializeDictReturnedBytesClosureI9Metachunk8FreeListIS0_EE;
	_ZTV34RedirtyLoggedCardTableEntryClosure;
	_ZTV34ThreadInVMfromJavaNoAsyncException;
	_ZTV35G1RegionsLargerThanCommitSizeMapper;
	_ZTV35VerifyStrongCodeRootCodeBlobClosure;
	_ZTV36G1RegionsSmallerThanCommitSizeMapper;
	_ZTV36JavaThreadBlockedOnMonitorEnterState;
	_ZTV36ParRootScanWithBarrierTwoGensClosure;
	_ZTV36ReferenceProcessorMTDiscoveryMutator;
	_ZTV36SecondaryFreeRegionListMtSafeChecker;
	_ZTV37ClassLoaderDataGraphMetaspaceIterator;
	_ZTV38ScanMarkedObjectsAgainCarefullyClosure;
	_ZTV39ClassLoaderDataGraphKlassIteratorAtomic;
	_ZTV3Op2;
	_ZTV3Phi;
	_ZTV3Set;
	_ZTV42RegisterHumongousWithInCSetFastTestClosure;
	_ZTV43RefineRecordRefsIntoCSCardTableEntryClosure;
	_ZTV45G1SATBCardTableLoggingModRefBSChangedListener;
	_ZTV46G1BlockOffsetSharedArrayMappingChangedListener;
	_ZTV4Base;
	_ZTV4DCmd;
	_ZTV4Dict;
	_ZTV4Goto;
	_ZTV4IfOp;
	_ZTV4Node;
	_ZTV4PairIP6Method14QualifiedState11ResourceObjE;
	_ZTV4Type;
	_ZTV5Arena;
	_ZTV5Block;
	_ZTV5Chunk;
	_ZTV5ciEnv;
	_ZTV5JNIid;
	_ZTV5Klass;
	_ZTV5Local;
	_ZTV5Mutex;
	_ZTV5Parse;
	_ZTV5Phase;
	_ZTV5Range;
	_ZTV5SetI_;
	_ZTV5Space;
	_ZTV5StackI12ObjArrayTaskL10MemoryType5EE;
	_ZTV5StackI8StarTaskL10MemoryType1EE;
	_ZTV5StackI8StarTaskL10MemoryType5EE;
	_ZTV5StackImL10MemoryType7EE;
	_ZTV5StackIP11markOopDescL10MemoryType5EE;
	_ZTV5StackIP5KlassL10MemoryType5EE;
	_ZTV5StackIP7_jclassL10MemoryType7EE;
	_ZTV5StackIP7oopDescL10MemoryType5EE;
	_ZTV5State;
	_ZTV5Throw;
	_ZTV5Trace;
	_ZTV5TypeD;
	_ZTV5TypeF;
	_ZTV6AbsSeq;
	_ZTV6Assert;
	_ZTV6ciType;
	_ZTV6CMTask;
	_ZTV6DepMem;
	_ZTV6GCTask;
	_ZTV6IfNode;
	_ZTV6Invoke;
	_ZTV6LIR_Op;
	_ZTV6MemBar;
	_ZTV6Method;
	_ZTV6OopMap;
	_ZTV6PaddedI16GenericTaskQueueIP7oopDescL10MemoryType5ELj131072EELm64EE;
	_ZTV6Parker;
	_ZTV6Return;
	_ZTV6RFrame;
	_ZTV6Switch;
	_ZTV6Thread;
	_ZTV6Values;
	_ZTV6vframe;
	_ZTV6vmNode;
	_ZTV6VSetI_;
	_ZTV7AbsNode;
	_ZTV7AddNode;
	_ZTV7BitData;
	_ZTV7CFGEdge;
	_ZTV7CFGLoop;
	_ZTV7ciArray;
	_ZTV7ciBlock;
	_ZTV7ciField;
	_ZTV7ciKlass;
	_ZTV7Closure;
	_ZTV7CmdLine;
	_ZTV7CmpNode;
	_ZTV7Command;
	_ZTV7Compile;
	_ZTV7ConNode;
	_ZTV7Convert;
	_ZTV7DepEdge;
	_ZTV7ElfFile;
	_ZTV7GCPhase;
	_ZTV7GCStats;
	_ZTV7GCTimer;
	_ZTV7i2bNode;
	_ZTV7i2sNode;
	_ZTV7Integer;
	_ZTV7IntType;
	_ZTV7IRScope;
	_ZTV7LIRItem;
	_ZTV7LIR_Op0;
	_ZTV7LIR_Op1;
	_ZTV7LIR_Op2;
	_ZTV7LIR_Op3;
	_ZTV7LogicOp;
	_ZTV7Matcher;
	_ZTV7MaxNode;
	_ZTV7MemNode;
	_ZTV7Monitor;
	_ZTV7MulNode;
	_ZTV7NegNode;
	_ZTV7nmethod;
	_ZTV7NMTDCmd;
	_ZTV7OopFlow;
	_ZTV7OrINode;
	_ZTV7OrLNode;
	_ZTV7OrVNode;
	_ZTV7PhiNode;
	_ZTV7RetData;
	_ZTV7RetNode;
	_ZTV7RoundFP;
	_ZTV7ShiftOp;
	_ZTV7SubNode;
	_ZTV7Tracker;
	_ZTV7TypeAry;
	_ZTV7TypeInt;
	_ZTV7TypePtr;
	_ZTV7VMError;
	_ZTV7VM_Exit;
	_ZTV8AbsDNode;
	_ZTV8AbsFNode;
	_ZTV8AbsINode;
	_ZTV8AddDNode;
	_ZTV8AddFNode;
	_ZTV8AddINode;
	_ZTV8AddLNode;
	_ZTV8AddPNode;
	_ZTV8AndINode;
	_ZTV8AndLNode;
	_ZTV8AndVNode;
	_ZTV8BlockEnd;
	_ZTV8BoolNode;
	_ZTV8Bytecode;
	_ZTV8CallNode;
	_ZTV8CFLS_LAB;
	_ZTV8CHeapObjIL10MemoryType10EE;
	_ZTV8CHeapObjIL10MemoryType12EE;
	_ZTV8CHeapObjIL10MemoryType14EE;
	_ZTV8CHeapObjIL10MemoryType15EE;
	_ZTV8CHeapObjIL10MemoryType1EE;
	_ZTV8CHeapObjIL10MemoryType2EE;
	_ZTV8CHeapObjIL10MemoryType4EE;
	_ZTV8CHeapObjIL10MemoryType5EE;
	_ZTV8CHeapObjIL10MemoryType6EE;
	_ZTV8CHeapObjIL10MemoryType7EE;
	_ZTV8CHeapObjIL10MemoryType8EE;
	_ZTV8CHeapObjIL10MemoryType9EE;
	_ZTV8ciMethod;
	_ZTV8ciObject;
	_ZTV8ciSymbol;
	_ZTV8CmpDNode;
	_ZTV8CmpFNode;
	_ZTV8CmpINode;
	_ZTV8CmpLNode;
	_ZTV8CmpNNode;
	_ZTV8CmpPNode;
	_ZTV8CmpUNode;
	_ZTV8CodeBlob;
	_ZTV8CodeHeap;
	_ZTV8CodeStub;
	_ZTV8Compiler;
	_ZTV8ConDNode;
	_ZTV8ConFNode;
	_ZTV8ConINode;
	_ZTV8ConLNode;
	_ZTV8ConNNode;
	_ZTV8ConPNode;
	_ZTV8Constant;
	_ZTV8CosDNode;
	_ZTV8DCmdInfo;
	_ZTV8DCmdIter;
	_ZTV8DCmdMark;
	_ZTV8DepPreds;
	_ZTV8DepSuccs;
	_ZTV8DivDNode;
	_ZTV8DivFNode;
	_ZTV8DivINode;
	_ZTV8DivLNode;
	_ZTV8EventLog;
	_ZTV8ExitProc;
	_ZTV8ExpDNode;
	_ZTV8fdStream;
	_ZTV8FrameMap;
	_ZTV8G1RemSet;
	_ZTV8GCTracer;
	_ZTV8GotoNode;
	_ZTV8GraphKit;
	_ZTV8HaltNode;
	_ZTV8HelpDCmd;
	_ZTV8IdealKit;
	_ZTV8immDOper;
	_ZTV8immFOper;
	_ZTV8immIOper;
	_ZTV8immLOper;
	_ZTV8immNOper;
	_ZTV8immPOper;
	_ZTV8IndexSet;
	_ZTV8intArray;
	_ZTV8Interval;
	_ZTV8intStack;
	_ZTV8JumpData;
	_ZTV8JumpNode;
	_ZTV8JVMState;
	_ZTV8JvmtiEnv;
	_ZTV8LabelObj;
	_ZTV8LIR_List;
	_ZTV8LoadNode;
	_ZTV8LockNode;
	_ZTV8LogDNode;
	_ZTV8LongType;
	_ZTV8LoopNode;
	_ZTV8LVT_Hash;
	_ZTV8MachNode;
	_ZTV8MachOper;
	_ZTV8MaxINode;
	_ZTV8Metadata;
	_ZTV8MinINode;
	_ZTV8ModDNode;
	_ZTV8ModFNode;
	_ZTV8ModINode;
	_ZTV8ModLNode;
	_ZTV8MulDNode;
	_ZTV8MulFNode;
	_ZTV8MulINode;
	_ZTV8MulLNode;
	_ZTV8NegateOp;
	_ZTV8NegDNode;
	_ZTV8NegFNode;
	_ZTV8NewArray;
	_ZTV8NodeHash;
	_ZTV8NodeList;
	_ZTV8OsrEntry;
	_ZTV8OSThread;
	_ZTV8PackNode;
	_ZTV8ParmNode;
	_ZTV8PerfData;
	_ZTV8PerfLong;
	_ZTV8PhaseCCP;
	_ZTV8PhaseCFG;
	_ZTV8PhaseGVN;
	_ZTV8PhaseIFG;
	_ZTV8PowDNode;
	_ZTV8ProjNode;
	_ZTV8PSOldGen;
	_ZTV8PtrQueue;
	_ZTV8regDOper;
	_ZTV8regFOper;
	_ZTV8Rewriter;
	_ZTV8RootNode;
	_ZTV8SinDNode;
	_ZTV8StackObj;
	_ZTV8stubNode;
	_ZTV8SubDNode;
	_ZTV8SubFNode;
	_ZTV8SubINode;
	_ZTV8SubLNode;
	_ZTV8TanDNode;
	_ZTV8TypeCast;
	_ZTV8TypeFunc;
	_ZTV8TypeLong;
	_ZTV8TypeNode;
	_ZTV8TypeVect;
	_ZTV8UnsafeOp;
	_ZTV8ValueMap;
	_ZTV8ValueSet;
	_ZTV8vecDOper;
	_ZTV8vecSOper;
	_ZTV8vecXOper;
	_ZTV8vecYOper;
	_ZTV8VM_Dummy;
	_ZTV8VMThread;
	_ZTV8VoidType;
	_ZTV8WorkData;
	_ZTV8WorkGang;
	_ZTV8XHandler;
	_ZTV8XorINode;
	_ZTV8XorLNode;
	_ZTV8XorVNode;
	_ZTV9AddVBNode;
	_ZTV9AddVDNode;
	_ZTV9AddVFNode;
	_ZTV9AddVINode;
	_ZTV9AddVLNode;
	_ZTV9AddVSNode;
	_ZTV9ArrayData;
	_ZTV9ArrayType;
	_ZTV9AryEqNode;
	_ZTV9Assembler;
	_ZTV9AtanDNode;
	_ZTV9BlockList;
	_ZTV9BlockPair;
	_ZTV9boolArray;
	_ZTV9CatchNode;
	_ZTV9CheckCast;
	_ZTV9ChunkPool;
	_ZTV9ciBitData;
	_ZTV9ciRetData;
	_ZTV9ClassType;
	_ZTV9CMCleanUp;
	_ZTV9CMoveNode;
	_ZTV9CmpD3Node;
	_ZTV9CmpF3Node;
	_ZTV9CmpL3Node;
	_ZTV9cmpOpOper;
	_ZTV9CMSTracer;
	_ZTV9CompareOp;
	_ZTV9CProjNode;
	_ZTV9DepChange;
	_ZTV9DivVDNode;
	_ZTV9DivVFNode;
	_ZTV9EdenSpace;
	_ZTV9EventMark;
	_ZTV9FieldNode;
	_ZTV9FloatType;
	_ZTV9FreeIdSet;
	_ZTV9G1ParTask;
	_ZTV9GCHeapLog;
	_ZTV9GenRemSet;
	_ZTV9HashtableIP12ConstantPoolL10MemoryType1EE;
	_ZTV9HashtableIP5KlassL10MemoryType1EE;
	_ZTV9HashtableIP6SymbolL10MemoryType1EE;
	_ZTV9HashtableIP6SymbolL10MemoryType9EE;
	_ZTV9HashtableIP7nmethodL10MemoryType5EE;
	_ZTV9HashtableIP7oopDescL10MemoryType1EE;
	_ZTV9HashtableIP7oopDescL10MemoryType9EE;
	_ZTV9Histogram;
	_ZTV9immD0Oper;
	_ZTV9immF0Oper;
	_ZTV9immI0Oper;
	_ZTV9immI1Oper;
	_ZTV9immI2Oper;
	_ZTV9immI8Oper;
	_ZTV9immL0Oper;
	_ZTV9immL1Oper;
	_ZTV9immL8Oper;
	_ZTV9immN0Oper;
	_ZTV9immP0Oper;
	_ZTV9Intrinsic;
	_ZTV9JProjNode;
	_ZTV9labelOper;
	_ZTV9leaP8Node;
	_ZTV9LIR_Const;
	_ZTV9loadBNode;
	_ZTV9LoadBNode;
	_ZTV9loadDNode;
	_ZTV9LoadDNode;
	_ZTV9LoadField;
	_ZTV9loadFNode;
	_ZTV9LoadFNode;
	_ZTV9loadINode;
	_ZTV9LoadINode;
	_ZTV9loadLNode;
	_ZTV9LoadLNode;
	_ZTV9loadNNode;
	_ZTV9LoadNNode;
	_ZTV9loadPNode;
	_ZTV9LoadPNode;
	_ZTV9loadSNode;
	_ZTV9LoadSNode;
	_ZTV9MetaIndex;
	_ZTV9Metaspace;
	_ZTV9MultiNode;
	_ZTV9MulVDNode;
	_ZTV9MulVFNode;
	_ZTV9MulVINode;
	_ZTV9MulVSNode;
	_ZTV9NodeArray;
	_ZTV9Node_List;
	_ZTV9NullCheck;
	_ZTV9NumberSeq;
	_ZTV9OopMapSet;
	_ZTV9PackBNode;
	_ZTV9PackDNode;
	_ZTV9PackFNode;
	_ZTV9PackINode;
	_ZTV9PackLNode;
	_ZTV9PackSNode;
	_ZTV9ParkEvent;
	_ZTV9PcFetcher;
	_ZTV9PhaseLive;
	_ZTV9Relocator;
	_ZTV9rRegIOper;
	_ZTV9rRegLOper;
	_ZTV9rRegNOper;
	_ZTV9rRegPOper;
	_ZTV9ScopeDesc;
	_ZTV9Semaphore;
	_ZTV9SqrtDNode;
	_ZTV9sRegDOper;
	_ZTV9sRegFOper;
	_ZTV9sRegIOper;
	_ZTV9sRegLOper;
	_ZTV9sRegPOper;
	_ZTV9StartNode;
	_ZTV9StealTask;
	_ZTV9StoreNode;
	_ZTV9StubFrame;
	_ZTV9StubQueue;
	_ZTV9SubFPNode;
	_ZTV9SubVBNode;
	_ZTV9SubVDNode;
	_ZTV9SubVFNode;
	_ZTV9SubVINode;
	_ZTV9SubVLNode;
	_ZTV9SubVSNode;
	_ZTV9SuperWord;
	_ZTV9TraceTime;
	_ZTV9ttyLocker;
	_ZTV9TypeCheck;
	_ZTV9TypeTuple;
	_ZTV9TypeVectD;
	_ZTV9TypeVectS;
	_ZTV9TypeVectX;
	_ZTV9TypeVectY;
	_ZTV9UnionFind;
	_ZTV9ValueType;
	_ZTV9VectorSet;
	_ZTV9VM_Verify;
	_ZTV9vor4BNode;
	_ZTV9vor8BNode;
	_ZTV9xaddINode;
	_ZTV9xaddLNode;
	_ZTV9xchgINode;
	_ZTV9xchgLNode;
	_ZTV9xchgNNode;
	_ZTV9xchgPNode;
	_ZTV9XHandlers;
	_ZTV9xmlStream;
	_ZTV9YoungList;
	_ZTVN10ciTypeFlow11StateVectorE;
	_ZTVN10ciTypeFlow13PreorderLoopsE;
	_ZTVN10ciTypeFlow4LoopE;
	_ZTVN10ciTypeFlow5BlockE;
	_ZTVN10ciTypeFlow6JsrSetE;
	_ZTVN10ciTypeFlow8SuccIterE;
	_ZTVN10ciTypeFlow9JsrRecordE;
	_ZTVN10SharedHeap16StrongRootsScopeE;
	_ZTVN11FileMapInfo13FileMapHeaderE;
	_ZTVN11FileMapInfo17FileMapHeaderBaseE;
	_ZTVN12Dependencies11DepArgumentE;
	_ZTVN12EventLogBaseI16StringLogMessageE11EventRecordIS0_EE;
	_ZTVN12EventLogBaseI9GCMessageE11EventRecordIS0_EE;
	_ZTVN12GraphBuilder9ScopeDataE;
	_ZTVN13CleanCallback28PointsIntoHRDetectionClosureE;
	_ZTVN13ValueRecorderIP8_jobjectE10IndexCacheIS1_EE;
	_ZTVN13ValueRecorderIP8MetadataE10IndexCacheIS1_EE;
	_ZTVN14Deoptimization11UnrollBlockE;
	_ZTVN14JavaAssertions10OptionListE;
	_ZTVN14KlassInfoTable16AllClassesFinderE;
	_ZTVN14MethodLiveness10BasicBlockE;
	_ZTVN14PSVirtualSpace22PSVirtualSpaceVerifierE;
	_ZTVN15ciObjectFactory13NonPermObjectE;
	_ZTVN15G1CollectedHeap27G1FastCSetBiasedMappedArrayE;
	_ZTVN15G1CollectedHeap32HumongousIsLiveBiasedMappedArrayE;
	_ZTVN15MallocSiteTable10AccessLockE;
	_ZTVN16CFGPrinterOutput17PrintBlockClosureE;
	_ZTVN16ComputeMoveOrder13MoveOperationE;
	_ZTVN16DefNewGeneration14IsAliveClosureE;
	_ZTVN16DefNewGeneration16KeepAliveClosureE;
	_ZTVN16DefNewGeneration20FastKeepAliveClosureE;
	_ZTVN16DefNewGeneration24EvacuateFollowersClosureE;
	_ZTVN16DefNewGeneration28FastEvacuateFollowersClosureE;
	_ZTVN16GenCollectedHeap10GenClosureE;
	_ZTVN16HierarchyVisitorI14PrintHierarchyE4NodeE;
	_ZTVN16HierarchyVisitorI16KeepAliveVisitorE4NodeE;
	_ZTVN16HierarchyVisitorI22FindMethodsByErasedSigE4NodeE;
	_ZTVN16MutableNUMASpace9LGRPSpaceE;
	_ZTVN16VirtualSpaceList24VirtualSpaceListIteratorE;
	_ZTVN17AbstractAssembler15InstructionMarkE;
	_ZTVN17AbstractAssembler19ShortBranchVerifierE;
	_ZTVN17G1CodeBlobClosure29HeapRegionGatheringOopClosureE;
	_ZTVN17PSParallelCompact14IsAliveClosureE;
	_ZTVN17PSParallelCompact16KeepAliveClosureE;
	_ZTVN17PSParallelCompact18AdjustKlassClosureE;
	_ZTVN17PSParallelCompact18FollowKlassClosureE;
	_ZTVN17PSParallelCompact18FollowStackClosureE;
	_ZTVN17PSParallelCompact18MarkAndPushClosureE;
	_ZTVN17PSParallelCompact20AdjustPointerClosureE;
	_ZTVN17ResourceHashtableI15BytecodeCPEntrytXadL_ZNS0_4hashERKS0_EEXadL_ZNS0_6equalsES2_S2_EELj256EE4NodeE;
	_ZTVN17ResourceHashtableIP6MethodiXadL_Z14primitive_hashIS1_EjRKT_EEXadL_Z16primitive_equalsIS1_EbS5_S5_EELj256EE4NodeE;
	_ZTVN18InterpreterRuntime25SignatureHandlerGeneratorE;
	_ZTVN18VM_RedefineClasses10CheckClassE;
	_ZTVN18VM_RedefineClasses25AdjustCpoolCacheAndVtableE;
	_ZTVN20ParallelScavengeHeap19ParStrongRootsScopeE;
	_ZTVN20RangeCheckEliminator10BoundArrayE;
	_ZTVN20RangeCheckEliminator10BoundStackE;
	_ZTVN20RangeCheckEliminator12IntegerStackE;
	_ZTVN20RangeCheckEliminator12VerificationE;
	_ZTVN20RangeCheckEliminator14BlockBeginListE;
	_ZTVN20RangeCheckEliminator15BlockBeginArrayE;
	_ZTVN20RangeCheckEliminator15InstructionListE;
	_ZTVN20RangeCheckEliminator16InstructionArrayE;
	_ZTVN20RangeCheckEliminator17AccessIndexedInfoE;
	_ZTVN20RangeCheckEliminator17AccessIndexedListE;
	_ZTVN20RangeCheckEliminator18AccessIndexedArrayE;
	_ZTVN20RangeCheckEliminator22AccessIndexedInfoArrayE;
	_ZTVN20RangeCheckEliminator5BoundE;
	_ZTVN20RangeCheckEliminator7VisitorE;
	_ZTVN20RangeCheckEliminator8BoundMapE;
	_ZTVN22MarkingCodeBlobClosure9MarkScopeE;
	_ZTVN23JvmtiDeferredEventQueue9QueueNodeE;
	_ZTVN23TestBufferingOopClosure15CountOopClosureE;
	_ZTVN23TestBufferingOopClosure19DoNothingOopClosureE;
	_ZTVN27AbstractRefProcTaskExecutor11EnqueueTaskE;
	_ZTVN27AbstractRefProcTaskExecutor11ProcessTaskE;
	_ZTVN27VerifyKlassOopsKlassClosure22VerifyKlassOopsClosureE;
	_ZTVN2os13PlatformEventE;
	_ZTVN2os14PlatformParkerE;
	_ZTVN2os19SuspendedThreadTaskE;
	_ZTVN2os28WatcherThreadCrashProtectionE;
	_ZTVN36G1RegionsSmallerThanCommitSizeMapper19CommitRefcountArrayE;
	_ZTVN5frame14ZapDeadClosureE;
	_ZTVN5frame15CheckOopClosureE;
	_ZTVN5frame17CheckValueClosureE;
	_ZTVN5Parse22BytecodeParseHistogramE;
	_ZTVN7Compile10TracePhaseE;
	_ZTVN7Compile19PrintInliningBufferE;
	_ZTVN8IndexSet8BitBlockE;
	_ZTVN9DepChange13ContextStreamE;
	_ZTVN9G1ParTask12G1CLDClosureIL6G1Mark0EEE;
	_ZTVN9G1ParTask12G1CLDClosureIL6G1Mark1EEE;
	_ZTVN9G1ParTask12G1CLDClosureIL6G1Mark2EEE;
	_ZTVN9MarkSweep14IsAliveClosureE;
	_ZTVN9MarkSweep16KeepAliveClosureE;
	_ZTVN9MarkSweep17FollowRootClosureE;
	_ZTVN9MarkSweep18FollowStackClosureE;
	_ZTVN9MarkSweep18MarkAndPushClosureE;
	_ZTVN9MarkSweep20AdjustPointerClosureE;
	_ZTVN9Metaspace11AllocRecordE;
	_ZTVN9Metaspace18AllocRecordClosureE;
	_ZTVZN12JvmtiEnvBase27check_for_periodic_clean_upEvE28ThreadInsideIterationClosure;
	_ZTVZN18ReferenceProcessor14count_jni_refsEvE18AlwaysAliveClosure;
	_ZTVZN18ReferenceProcessor14count_jni_refsEvE18CountHandleClosure;
